(dp1
S'chugging+alcohol'
p2
(lp3
ccopy_reg
_reconstructor
p4
(cmmfeat.miner.flickr
FlickrResult
p5
c__builtin__
object
p6
NtRp7
(dp8
S'isfamily'
p9
I0
sS'title'
p10
V#Street #Signs. #Chugging #Alcohol. #Brilliant
p11
sS'farm'
p12
I4
sS'format'
p13
S'image/jpg'
p14
sS'ispublic'
p15
I1
sS'server'
p16
V3789
p17
sS'isfriend'
p18
I0
sS'secret'
p19
V0e7a3c5a40
p20
sS'url'
p21
S'http://farm4.static.flickr.com/3789/9484174986_0e7a3c5a40.jpg'
p22
sS'owner'
p23
V82880440@N02
p24
sS'id'
p25
V9484174986
p26
sbag4
(g5
g6
NtRp27
(dp28
S'isfamily'
p29
I0
sS'title'
p30
VThe Tree of Life
p31
sS'farm'
p32
I9
sg13
g14
sS'ispublic'
p33
I1
sS'server'
p34
V8062
p35
sS'isfriend'
p36
I0
sS'secret'
p37
V02ce1263f2
p38
sg21
S'http://farm9.static.flickr.com/8062/8270073011_02ce1263f2.jpg'
p39
sS'owner'
p40
V77633445@N02
p41
sS'id'
p42
V8270073011
p43
sbag4
(g5
g6
NtRp44
(dp45
S'isfamily'
p46
I0
sS'title'
p47
VCoyoty Ugly - the non-motion picture
p48
sS'farm'
p49
I4
sg13
g14
sS'ispublic'
p50
I1
sS'server'
p51
V3428
p52
sS'isfriend'
p53
I0
sS'secret'
p54
V1c949df1b9
p55
sg21
S'http://farm4.static.flickr.com/3428/3357833665_1c949df1b9.jpg'
p56
sS'owner'
p57
V50618942@N00
p58
sS'id'
p59
V3357833665
p60
sbag4
(g5
g6
NtRp61
(dp62
S'isfamily'
p63
I0
sS'title'
p64
VBastards
p65
sS'farm'
p66
I8
sg13
g14
sS'ispublic'
p67
I1
sS'server'
p68
V7030
p69
sS'isfriend'
p70
I0
sS'secret'
p71
V4cfcf2b4e8
p72
sg21
S'http://farm8.static.flickr.com/7030/6427730609_4cfcf2b4e8.jpg'
p73
sS'owner'
p74
V68299966@N05
p75
sS'id'
p76
V6427730609
p77
sbag4
(g5
g6
NtRp78
(dp79
S'isfamily'
p80
I0
sS'title'
p81
VSake Bomb
p82
sS'farm'
p83
I3
sg13
g14
sS'ispublic'
p84
I1
sS'server'
p85
V2058
p86
sS'isfriend'
p87
I0
sS'secret'
p88
Va17b262b0c
p89
sg21
S'http://farm3.static.flickr.com/2058/2325346318_a17b262b0c.jpg'
p90
sS'owner'
p91
V8676248@N08
p92
sS'id'
p93
V2325346318
p94
sbas.