(dp1
S'chugging+beer'
p2
(lp3
ccopy_reg
_reconstructor
p4
(cmmfeat.miner.flickr
FlickrResult
p5
c__builtin__
object
p6
NtRp7
(dp8
S'isfamily'
p9
I0
sS'title'
p10
Vchugging beer
p11
sS'farm'
p12
I9
sS'format'
p13
S'image/jpg'
p14
sS'ispublic'
p15
I1
sS'server'
p16
V8452
p17
sS'isfriend'
p18
I0
sS'secret'
p19
Vf38e1f84c2
p20
sS'url'
p21
S'http://farm9.static.flickr.com/8452/8068956228_f38e1f84c2.jpg'
p22
sS'owner'
p23
V18117288@N00
p24
sS'id'
p25
V8068956228
p26
sbag4
(g5
g6
NtRp27
(dp28
S'isfamily'
p29
I0
sS'title'
p30
Vchug_beer
p31
sS'farm'
p32
I9
sg13
g14
sS'ispublic'
p33
I1
sS'server'
p34
V8161
p35
sS'isfriend'
p36
I0
sS'secret'
p37
Vbf226e942c
p38
sg21
S'http://farm9.static.flickr.com/8161/7702453714_bf226e942c.jpg'
p39
sS'owner'
p40
V35547287@N00
p41
sS'id'
p42
V7702453714
p43
sbag4
(g5
g6
NtRp44
(dp45
S'isfamily'
p46
I0
sS'title'
p47
Vchugging beer
p48
sS'farm'
p49
I4
sg13
g14
sS'ispublic'
p50
I1
sS'server'
p51
V3853
p52
sS'isfriend'
p53
I0
sS'secret'
p54
Vd85aa6512a
p55
sg21
S'http://farm4.static.flickr.com/3853/14783735101_d85aa6512a.jpg'
p56
sS'owner'
p57
V92820179@N05
p58
sS'id'
p59
V14783735101
p60
sbag4
(g5
g6
NtRp61
(dp62
S'isfamily'
p63
I0
sS'title'
p64
VChugging beer
p65
sS'farm'
p66
I3
sg13
g14
sS'ispublic'
p67
I1
sS'server'
p68
V2231
p69
sS'isfriend'
p70
I0
sS'secret'
p71
V65fd238764
p72
sg21
S'http://farm3.static.flickr.com/2231/2513364098_65fd238764.jpg'
p73
sS'owner'
p74
V82757203@N00
p75
sS'id'
p76
V2513364098
p77
sbag4
(g5
g6
NtRp78
(dp79
S'isfamily'
p80
I0
sS'title'
p81
VChug-Beer
p82
sS'farm'
p83
I9
sg13
g14
sS'ispublic'
p84
I1
sS'server'
p85
V8160
p86
sS'isfriend'
p87
I0
sS'secret'
p88
Vc668985403
p89
sg21
S'http://farm9.static.flickr.com/8160/7557075486_c668985403.jpg'
p90
sS'owner'
p91
V75953077@N07
p92
sS'id'
p93
V7557075486
p94
sbag4
(g5
g6
NtRp95
(dp96
S'isfamily'
p97
I0
sS'title'
p98
Vchug beer
p99
sS'farm'
p100
I1
sg13
g14
sS'ispublic'
p101
I1
sS'server'
p102
V151
p103
sS'isfriend'
p104
I0
sS'secret'
p105
V9e0e3c6e95
p106
sg21
S'http://farm1.static.flickr.com/151/351779517_9e0e3c6e95.jpg'
p107
sS'owner'
p108
V31226518@N00
p109
sS'id'
p110
V351779517
p111
sbag4
(g5
g6
NtRp112
(dp113
S'isfamily'
p114
I0
sS'title'
p115
Vchugging beer
p116
sS'farm'
p117
I1
sg13
g14
sS'ispublic'
p118
I1
sS'server'
p119
V22
p120
sS'isfriend'
p121
I0
sS'secret'
p122
Vadbcc87431
p123
sg21
S'http://farm1.static.flickr.com/22/25028087_adbcc87431.jpg'
p124
sS'owner'
p125
V29456148@N00
p126
sS'id'
p127
V25028087
p128
sbag4
(g5
g6
NtRp129
(dp130
S'isfamily'
p131
I0
sS'title'
p132
VChugging Beers
p133
sS'farm'
p134
I4
sg13
g14
sS'ispublic'
p135
I1
sS'server'
p136
V3098
p137
sS'isfriend'
p138
I0
sS'secret'
p139
Vda132e22e6
p140
sg21
S'http://farm4.static.flickr.com/3098/5825372795_da132e22e6.jpg'
p141
sS'owner'
p142
V63540882@N06
p143
sS'id'
p144
V5825372795
p145
sbag4
(g5
g6
NtRp146
(dp147
S'isfamily'
p148
I0
sS'title'
p149
VTom Chugging Beer
p150
sS'farm'
p151
I3
sg13
g14
sS'ispublic'
p152
I1
sS'server'
p153
V2853
p154
sS'isfriend'
p155
I0
sS'secret'
p156
V5d81d1f004
p157
sg21
S'http://farm3.static.flickr.com/2853/12296198533_5d81d1f004.jpg'
p158
sS'owner'
p159
V52151580@N05
p160
sS'id'
p161
V12296198533
p162
sbag4
(g5
g6
NtRp163
(dp164
S'isfamily'
p165
I0
sS'title'
p166
VShotGunning And Chugging Beers
p167
sS'farm'
p168
I8
sg13
g14
sS'ispublic'
p169
I1
sS'server'
p170
V7276
p171
sS'isfriend'
p172
I0
sS'secret'
p173
Vd985d580e2
p174
sg21
S'http://farm8.static.flickr.com/7276/7748202924_d985d580e2.jpg'
p175
sS'owner'
p176
V45797823@N03
p177
sS'id'
p178
V7748202924
p179
sbag4
(g5
g6
NtRp180
(dp181
S'isfamily'
p182
I0
sS'title'
p183
VChugging beer!@oskarbakke @warnernickerson
p184
sS'farm'
p185
I8
sg13
g14
sS'ispublic'
p186
I1
sS'server'
p187
V7359
p188
sS'isfriend'
p189
I0
sS'secret'
p190
Ve21c83a218
p191
sg21
S'http://farm8.static.flickr.com/7359/12535713653_e21c83a218.jpg'
p192
sS'owner'
p193
V38712801@N02
p194
sS'id'
p195
V12535713653
p196
sbag4
(g5
g6
NtRp197
(dp198
S'isfamily'
p199
I0
sS'title'
p200
V"Going Green": the gripping tale of a young recliner learning life's harsh realities
p201
sS'farm'
p202
I4
sg13
g14
sS'ispublic'
p203
I1
sS'server'
p204
V3368
p205
sS'isfriend'
p206
I0
sS'secret'
p207
V57af3d5387
p208
sg21
S'http://farm4.static.flickr.com/3368/3481336669_57af3d5387.jpg'
p209
sS'owner'
p210
V32244166@N06
p211
sS'id'
p212
V3481336669
p213
sbag4
(g5
g6
NtRp214
(dp215
S'isfamily'
p216
I0
sS'title'
p217
VSuper Happy Hoppy Fun Beer
p218
sS'farm'
p219
I5
sg13
g14
sS'ispublic'
p220
I1
sS'server'
p221
V4012
p222
sS'isfriend'
p223
I0
sS'secret'
p224
V71aabf9bed
p225
sg21
S'http://farm5.static.flickr.com/4012/4500056641_71aabf9bed.jpg'
p226
sS'owner'
p227
V95572727@N00
p228
sS'id'
p229
V4500056641
p230
sbag4
(g5
g6
NtRp231
(dp232
S'isfamily'
p233
I0
sS'title'
p234
VThe Team Beer Chug
p235
sS'farm'
p236
I9
sg13
g14
sS'ispublic'
p237
I1
sS'server'
p238
V8431
p239
sS'isfriend'
p240
I0
sS'secret'
p241
V0a103e0483
p242
sg21
S'http://farm9.static.flickr.com/8431/7748190500_0a103e0483.jpg'
p243
sS'owner'
p244
V45797823@N03
p245
sS'id'
p246
V7748190500
p247
sbag4
(g5
g6
NtRp248
(dp249
S'isfamily'
p250
I0
sS'title'
p251
Vguiseppe chugs beer on the wall
p252
sS'farm'
p253
I1
sg13
g14
sS'ispublic'
p254
I1
sS'server'
p255
V1
sS'isfriend'
p256
I0
sS'secret'
p257
V38947aa3c9
p258
sg21
S'http://farm1.static.flickr.com/1/657344_38947aa3c9.jpg'
p259
sS'owner'
p260
V35034359890@N01
p261
sS'id'
p262
V657344
p263
sbag4
(g5
g6
NtRp264
(dp265
S'isfamily'
p266
I0
sS'title'
p267
VBay To Breakers Runner
p268
sS'farm'
p269
I5
sg13
g14
sS'ispublic'
p270
I1
sS'server'
p271
V4033
p272
sS'isfriend'
p273
I0
sS'secret'
p274
Vc1609a23fe
p275
sg21
S'http://farm5.static.flickr.com/4033/4616726970_c1609a23fe.jpg'
p276
sS'owner'
p277
V12715395@N05
p278
sS'id'
p279
V4616726970
p280
sbag4
(g5
g6
NtRp281
(dp282
S'isfamily'
p283
I0
sS'title'
p284
VThe Chugging Beer ! Ole !
p285
sS'farm'
p286
I7
sg13
g14
sS'ispublic'
p287
I1
sS'server'
p288
V6144
p289
sS'isfriend'
p290
I0
sS'secret'
p291
Vff70a183d2
p292
sg21
S'http://farm7.static.flickr.com/6144/6042336465_ff70a183d2.jpg'
p293
sS'owner'
p294
V49503142513@N01
p295
sS'id'
p296
V6042336465
p297
sbag4
(g5
g6
NtRp298
(dp299
S'isfamily'
p300
I0
sS'title'
p301
VBeer & Fireworks
p302
sS'farm'
p303
I4
sg13
g14
sS'ispublic'
p304
I1
sS'server'
p305
V3839
p306
sS'isfriend'
p307
I0
sS'secret'
p308
V12399f9a5d
p309
sg21
S'http://farm4.static.flickr.com/3839/14592611926_12399f9a5d.jpg'
p310
sS'owner'
p311
V121199993@N05
p312
sS'id'
p313
V14592611926
p314
sbag4
(g5
g6
NtRp315
(dp316
S'isfamily'
p317
I0
sS'title'
p318
VBoogie Bonanza 2013, swoop & chug, beer opening wench!
p319
sS'farm'
p320
I9
sg13
g14
sS'ispublic'
p321
I1
sS'server'
p322
V8122
p323
sS'isfriend'
p324
I0
sS'secret'
p325
V222a2a5831
p326
sg21
S'http://farm9.static.flickr.com/8122/8660240447_222a2a5831.jpg'
p327
sS'owner'
p328
V15775662@N00
p329
sS'id'
p330
V8660240447
p331
sbag4
(g5
g6
NtRp332
(dp333
S'isfamily'
p334
I0
sS'title'
p335
VBEEEEER FUNNNELLLLL!!!! I still got it...#beerfunnel #chug #beer #happymothersday #alcohol #weekend #lesbian #lipsticklesbian #notladylike #butch
p336
sS'farm'
p337
I8
sg13
g14
sS'ispublic'
p338
I1
sS'server'
p339
V7073
p340
sS'isfriend'
p341
I0
sS'secret'
p342
Vcfcf623872
p343
sg21
S'http://farm8.static.flickr.com/7073/7189324264_cfcf623872.jpg'
p344
sS'owner'
p345
V80085825@N00
p346
sS'id'
p347
V7189324264
p348
sbag4
(g5
g6
NtRp349
(dp350
S'isfamily'
p351
I0
sS'title'
p352
VHighFest_013
p353
sS'farm'
p354
I8
sg13
g14
sS'ispublic'
p355
I1
sS'server'
p356
V7324
p357
sS'isfriend'
p358
I0
sS'secret'
p359
Vd15e60e008
p360
sg21
S'http://farm8.static.flickr.com/7324/13367869383_d15e60e008.jpg'
p361
sS'owner'
p362
V120608407@N06
p363
sS'id'
p364
V13367869383
p365
sbag4
(g5
g6
NtRp366
(dp367
S'isfamily'
p368
I0
sS'title'
p369
VChugging
p370
sS'farm'
p371
I3
sg13
g14
sS'ispublic'
p372
I1
sS'server'
p373
V2476
p374
sS'isfriend'
p375
I0
sS'secret'
p376
V9870b2648a
p377
sg21
S'http://farm3.static.flickr.com/2476/3929769633_9870b2648a.jpg'
p378
sS'owner'
p379
V71022830@N00
p380
sS'id'
p381
V3929769633
p382
sbag4
(g5
g6
NtRp383
(dp384
S'isfamily'
p385
I0
sS'title'
p386
VTypical Family
p387
sS'farm'
p388
I3
sg13
g14
sS'ispublic'
p389
I1
sS'server'
p390
V2223
p391
sS'isfriend'
p392
I0
sS'secret'
p393
V7290e5e134
p394
sg21
S'http://farm3.static.flickr.com/2223/2167064375_7290e5e134.jpg'
p395
sS'owner'
p396
V38687875@N00
p397
sS'id'
p398
V2167064375
p399
sbag4
(g5
g6
NtRp400
(dp401
S'isfamily'
p402
I0
sS'title'
p403
Vmusical interlude means..
p404
sS'farm'
p405
I2
sg13
g14
sS'ispublic'
p406
I1
sS'server'
p407
V1145
p408
sS'isfriend'
p409
I0
sS'secret'
p410
V55ed33a1fe
p411
sg21
S'http://farm2.static.flickr.com/1145/553121828_55ed33a1fe.jpg'
p412
sS'owner'
p413
V8527057@N07
p414
sS'id'
p415
V553121828
p416
sbag4
(g5
g6
NtRp417
(dp418
S'isfamily'
p419
I0
sS'title'
p420
VThose "No alcohol beyond this point" signs might as well say "Chug beer here."
p421
sS'farm'
p422
I3
sg13
g14
sS'ispublic'
p423
I1
sS'server'
p424
V2853
p425
sS'isfriend'
p426
I0
sS'secret'
p427
V328d897939
p428
sg21
S'http://farm3.static.flickr.com/2853/32557157254_328d897939.jpg'
p429
sS'owner'
p430
V22489483@N07
p431
sS'id'
p432
V32557157254
p433
sbag4
(g5
g6
NtRp434
(dp435
S'isfamily'
p436
I0
sS'title'
p437
VBreak!
p438
sS'farm'
p439
I1
sg13
g14
sS'ispublic'
p440
I1
sS'server'
p441
V98
p442
sS'isfriend'
p443
I0
sS'secret'
p444
V824ca43387
p445
sg21
S'http://farm1.static.flickr.com/98/207853435_824ca43387.jpg'
p446
sS'owner'
p447
V80872512@N00
p448
sS'id'
p449
V207853435
p450
sbag4
(g5
g6
NtRp451
(dp452
S'isfamily'
p453
I0
sS'title'
p454
Vchug
p455
sS'farm'
p456
I1
sg13
g14
sS'ispublic'
p457
I1
sS'server'
p458
V204
p459
sS'isfriend'
p460
I0
sS'secret'
p461
V43bc64ea32
p462
sg21
S'http://farm1.static.flickr.com/204/513708095_43bc64ea32.jpg'
p463
sS'owner'
p464
V53639121@N00
p465
sS'id'
p466
V513708095
p467
sbag4
(g5
g6
NtRp468
(dp469
S'isfamily'
p470
I0
sS'title'
p471
VThe true horror thriller is calling and you definitely \u2018Don\u2019t Hang Up!\u2019
p472
sS'farm'
p473
I3
sg13
g14
sS'ispublic'
p474
I1
sS'server'
p475
V2733
p476
sS'isfriend'
p477
I0
sS'secret'
p478
V868c134f20
p479
sg21
S'http://farm3.static.flickr.com/2733/32344702173_868c134f20.jpg'
p480
sS'owner'
p481
V103575322@N04
p482
sS'id'
p483
V32344702173
p484
sbag4
(g5
g6
NtRp485
(dp486
S'isfamily'
p487
I0
sS'title'
p488
Vtrailer trash porn star_002
p489
sS'farm'
p490
I9
sg13
g14
sS'ispublic'
p491
I1
sS'server'
p492
V8194
p493
sS'isfriend'
p494
I0
sS'secret'
p495
V8737e1a061
p496
sg21
S'http://farm9.static.flickr.com/8194/8150239371_8737e1a061.jpg'
p497
sS'owner'
p498
V67366331@N04
p499
sS'id'
p500
V8150239371
p501
sbag4
(g5
g6
NtRp502
(dp503
S'isfamily'
p504
I0
sS'title'
p505
Vchugging beer
p506
sS'farm'
p507
I1
sg13
g14
sS'ispublic'
p508
I1
sS'server'
p509
V22
p510
sS'isfriend'
p511
I0
sS'secret'
p512
V7a65db0499
p513
sg21
S'http://farm1.static.flickr.com/22/27049714_7a65db0499.jpg'
p514
sS'owner'
p515
V51561132@N00
p516
sS'id'
p517
V27049714
p518
sbag4
(g5
g6
NtRp519
(dp520
S'isfamily'
p521
I0
sS'title'
p522
Vbuddies
p523
sS'farm'
p524
I1
sg13
g14
sS'ispublic'
p525
I1
sS'server'
p526
V5
sS'isfriend'
p527
I0
sS'secret'
p528
Vfb42f76c51
p529
sg21
S'http://farm1.static.flickr.com/5/9023348_fb42f76c51.jpg'
p530
sS'owner'
p531
V13423308@N00
p532
sS'id'
p533
V9023348
p534
sbag4
(g5
g6
NtRp535
(dp536
S'isfamily'
p537
I0
sS'title'
p538
VChugging Beers
p539
sS'farm'
p540
I4
sg13
g14
sS'ispublic'
p541
I1
sS'server'
p542
V3542
p543
sS'isfriend'
p544
I0
sS'secret'
p545
V75fd365e5a
p546
sg21
S'http://farm4.static.flickr.com/3542/3356424457_75fd365e5a.jpg'
p547
sS'owner'
p548
V24299566@N04
p549
sS'id'
p550
V3356424457
p551
sbag4
(g5
g6
NtRp552
(dp553
S'isfamily'
p554
I0
sS'title'
p555
VChugging Beers
p556
sS'farm'
p557
I4
sg13
g14
sS'ispublic'
p558
I1
sS'server'
p559
V3150
p560
sS'isfriend'
p561
I0
sS'secret'
p562
Vb1a2bac4c3
p563
sg21
S'http://farm4.static.flickr.com/3150/2757104523_b1a2bac4c3.jpg'
p564
sS'owner'
p565
V29340353@N05
p566
sS'id'
p567
V2757104523
p568
sbag4
(g5
g6
NtRp569
(dp570
S'isfamily'
p571
I0
sS'title'
p572
Vchug beer!
p573
sS'farm'
p574
I4
sg13
g14
sS'ispublic'
p575
I1
sS'server'
p576
V3042
p577
sS'isfriend'
p578
I0
sS'secret'
p579
Vb9f98556ca
p580
sg21
S'http://farm4.static.flickr.com/3042/2605505000_b9f98556ca.jpg'
p581
sS'owner'
p582
V14345560@N05
p583
sS'id'
p584
V2605505000
p585
sbag4
(g5
g6
NtRp586
(dp587
S'isfamily'
p588
I0
sS'title'
p589
VChugging Beer
p590
sS'farm'
p591
I1
sg13
g14
sS'ispublic'
p592
I1
sS'server'
p593
V21
p594
sS'isfriend'
p595
I0
sS'secret'
p596
V6d73cb5896
p597
sg21
S'http://farm1.static.flickr.com/21/89881602_6d73cb5896.jpg'
p598
sS'owner'
p599
V75913012@N00
p600
sS'id'
p601
V89881602
p602
sbag4
(g5
g6
NtRp603
(dp604
S'isfamily'
p605
I0
sS'title'
p606
VChugging Beers
p607
sS'farm'
p608
I4
sg13
g14
sS'ispublic'
p609
I1
sS'server'
p610
V3288
p611
sS'isfriend'
p612
I0
sS'secret'
p613
V8446364ae7
p614
sg21
S'http://farm4.static.flickr.com/3288/2757104963_8446364ae7.jpg'
p615
sS'owner'
p616
V29340353@N05
p617
sS'id'
p618
V2757104963
p619
sbag4
(g5
g6
NtRp620
(dp621
S'isfamily'
p622
I0
sS'title'
p623
Vshark chugging beer
p624
sS'farm'
p625
I3
sg13
g14
sS'ispublic'
p626
I1
sS'server'
p627
V2842
p628
sS'isfriend'
p629
I0
sS'secret'
p630
Va31cac316a
p631
sg21
S'http://farm3.static.flickr.com/2842/13229872733_a31cac316a.jpg'
p632
sS'owner'
p633
V73328691@N00
p634
sS'id'
p635
V13229872733
p636
sbag4
(g5
g6
NtRp637
(dp638
S'isfamily'
p639
I0
sS'title'
p640
VKP chugs beers
p641
sS'farm'
p642
I9
sg13
g14
sS'ispublic'
p643
I1
sS'server'
p644
V8462
p645
sS'isfriend'
p646
I0
sS'secret'
p647
V3bff96924c
p648
sg21
S'http://farm9.static.flickr.com/8462/7947620588_3bff96924c.jpg'
p649
sS'owner'
p650
V51333259@N07
p651
sS'id'
p652
V7947620588
p653
sbag4
(g5
g6
NtRp654
(dp655
S'isfamily'
p656
I0
sS'title'
p657
Vhomer chugging beer
p658
sS'farm'
p659
I3
sg13
g14
sS'ispublic'
p660
I1
sS'server'
p661
V2581
p662
sS'isfriend'
p663
I0
sS'secret'
p664
V6ea03e2853
p665
sg21
S'http://farm3.static.flickr.com/2581/3713270486_6ea03e2853.jpg'
p666
sS'owner'
p667
V40348546@N02
p668
sS'id'
p669
V3713270486
p670
sbag4
(g5
g6
NtRp671
(dp672
S'isfamily'
p673
I0
sS'title'
p674
VJason Chugging Beer
p675
sS'farm'
p676
I4
sg13
g14
sS'ispublic'
p677
I1
sS'server'
p678
V3343
p679
sS'isfriend'
p680
I0
sS'secret'
p681
Veceda97b80
p682
sg21
S'http://farm4.static.flickr.com/3343/3249021315_eceda97b80.jpg'
p683
sS'owner'
p684
V76134195@N00
p685
sS'id'
p686
V3249021315
p687
sbag4
(g5
g6
NtRp688
(dp689
S'isfamily'
p690
I0
sS'title'
p691
Vindians chug beer
p692
sS'farm'
p693
I4
sg13
g14
sS'ispublic'
p694
I1
sS'server'
p695
V3033
p696
sS'isfriend'
p697
I0
sS'secret'
p698
V02edaf9607
p699
sg21
S'http://farm4.static.flickr.com/3033/2546824058_02edaf9607.jpg'
p700
sS'owner'
p701
V83307497@N00
p702
sS'id'
p703
V2546824058
p704
sbag4
(g5
g6
NtRp705
(dp706
S'isfamily'
p707
I0
sS'title'
p708
VLions chugging beer!
p709
sS'farm'
p710
I3
sg13
g14
sS'ispublic'
p711
I1
sS'server'
p712
V2876
p713
sS'isfriend'
p714
I0
sS'secret'
p715
V22e9b290b3
p716
sg21
S'http://farm3.static.flickr.com/2876/12247947576_22e9b290b3.jpg'
p717
sS'owner'
p718
V56296827@N00
p719
sS'id'
p720
V12247947576
p721
sbag4
(g5
g6
NtRp722
(dp723
S'isfamily'
p724
I0
sS'title'
p725
VMimi chugging beer
p726
sS'farm'
p727
I3
sg13
g14
sS'ispublic'
p728
I1
sS'server'
p729
V2031
p730
sS'isfriend'
p731
I0
sS'secret'
p732
V050d22b694
p733
sg21
S'http://farm3.static.flickr.com/2031/1910276236_050d22b694.jpg'
p734
sS'owner'
p735
V10198813@N05
p736
sS'id'
p737
V1910276236
p738
sbag4
(g5
g6
NtRp739
(dp740
S'isfamily'
p741
I0
sS'title'
p742
VStranger chugging beer
p743
sS'farm'
p744
I5
sg13
g14
sS'ispublic'
p745
I1
sS'server'
p746
V4121
p747
sS'isfriend'
p748
I0
sS'secret'
p749
V5754cfcf1c
p750
sg21
S'http://farm5.static.flickr.com/4121/4806651225_5754cfcf1c.jpg'
p751
sS'owner'
p752
V82972606@N00
p753
sS'id'
p754
V4806651225
p755
sbag4
(g5
g6
NtRp756
(dp757
S'isfamily'
p758
I0
sS'title'
p759
VEdge Chugging Beer
p760
sS'farm'
p761
I2
sg13
g14
sS'ispublic'
p762
I1
sS'server'
p763
V1402
p764
sS'isfriend'
p765
I0
sS'secret'
p766
Va0438888ac
p767
sg21
S'http://farm2.static.flickr.com/1402/1041290384_a0438888ac.jpg'
p768
sS'owner'
p769
V10536946@N03
p770
sS'id'
p771
V1041290384
p772
sbag4
(g5
g6
NtRp773
(dp774
S'isfamily'
p775
I0
sS'title'
p776
VChugging Beer Again
p777
sS'farm'
p778
I1
sg13
g14
sS'ispublic'
p779
I1
sS'server'
p780
V123
p781
sS'isfriend'
p782
I0
sS'secret'
p783
V9a6d19c763
p784
sg21
S'http://farm1.static.flickr.com/123/321980415_9a6d19c763.jpg'
p785
sS'owner'
p786
V98442907@N00
p787
sS'id'
p788
V321980415
p789
sbag4
(g5
g6
NtRp790
(dp791
S'isfamily'
p792
I0
sS'title'
p793
VBird Chugging Beer
p794
sS'farm'
p795
I1
sg13
g14
sS'ispublic'
p796
I1
sS'server'
p797
V16
p798
sS'isfriend'
p799
I0
sS'secret'
p800
V607d72fe7d
p801
sg21
S'http://farm1.static.flickr.com/16/21792747_607d72fe7d.jpg'
p802
sS'owner'
p803
V73474557@N00
p804
sS'id'
p805
V21792747
p806
sbag4
(g5
g6
NtRp807
(dp808
S'isfamily'
p809
I0
sS'title'
p810
Vmust chug beer
p811
sS'farm'
p812
I1
sg13
g14
sS'ispublic'
p813
I1
sS'server'
p814
V212
p815
sS'isfriend'
p816
I0
sS'secret'
p817
V6ca9fc731f
p818
sg21
S'http://farm1.static.flickr.com/212/462096641_6ca9fc731f.jpg'
p819
sS'owner'
p820
V80613066@N00
p821
sS'id'
p822
V462096641
p823
sbag4
(g5
g6
NtRp824
(dp825
S'isfamily'
p826
I0
sS'title'
p827
VJoe Chugs Beer
p828
sS'farm'
p829
I3
sg13
g14
sS'ispublic'
p830
I1
sS'server'
p831
V2665
p832
sS'isfriend'
p833
I0
sS'secret'
p834
V5a939625b8
p835
sg21
S'http://farm3.static.flickr.com/2665/3816776592_5a939625b8.jpg'
p836
sS'owner'
p837
V11774512@N05
p838
sS'id'
p839
V3816776592
p840
sbag4
(g5
g6
NtRp841
(dp842
S'isfamily'
p843
I0
sS'title'
p844
VMimi chugging beer
p845
sS'farm'
p846
I3
sg13
g14
sS'ispublic'
p847
I1
sS'server'
p848
V2296
p849
sS'isfriend'
p850
I0
sS'secret'
p851
V452dff8bcf
p852
sg21
S'http://farm3.static.flickr.com/2296/1910277444_452dff8bcf.jpg'
p853
sS'owner'
p854
V10198813@N05
p855
sS'id'
p856
V1910277444
p857
sbag4
(g5
g6
NtRp858
(dp859
S'isfamily'
p860
I0
sS'title'
p861
Vchugging beers at the game
p862
sS'farm'
p863
I3
sg13
g14
sS'ispublic'
p864
I1
sS'server'
p865
V2356
p866
sS'isfriend'
p867
I0
sS'secret'
p868
Vf8741a2e50
p869
sg21
S'http://farm3.static.flickr.com/2356/2224820398_f8741a2e50.jpg'
p870
sS'owner'
p871
V83477886@N00
p872
sS'id'
p873
V2224820398
p874
sbag4
(g5
g6
NtRp875
(dp876
S'isfamily'
p877
I0
sS'title'
p878
VMe Chugging Beer
p879
sS'farm'
p880
I1
sg13
g14
sS'ispublic'
p881
I1
sS'server'
p882
V126
p883
sS'isfriend'
p884
I0
sS'secret'
p885
Vf29b3394b8
p886
sg21
S'http://farm1.static.flickr.com/126/321977040_f29b3394b8.jpg'
p887
sS'owner'
p888
V98442907@N00
p889
sS'id'
p890
V321977040
p891
sbag4
(g5
g6
NtRp892
(dp893
S'isfamily'
p894
I0
sS'title'
p895
Vang chugging beer under veil
p896
sS'farm'
p897
I1
sg13
g14
sS'ispublic'
p898
I1
sS'server'
p899
V23
p900
sS'isfriend'
p901
I0
sS'secret'
p902
V6cd6472ae5
p903
sg21
S'http://farm1.static.flickr.com/23/33939033_6cd6472ae5.jpg'
p904
sS'owner'
p905
V12842940@N00
p906
sS'id'
p907
V33939033
p908
sbag4
(g5
g6
NtRp909
(dp910
S'isfamily'
p911
I0
sS'title'
p912
Vcraiggie chugging beer
p913
sS'farm'
p914
I3
sg13
g14
sS'ispublic'
p915
I1
sS'server'
p916
V2645
p917
sS'isfriend'
p918
I0
sS'secret'
p919
V2fe7f40026
p920
sg21
S'http://farm3.static.flickr.com/2645/3812164113_2fe7f40026.jpg'
p921
sS'owner'
p922
V47335561@N00
p923
sS'id'
p924
V3812164113
p925
sbag4
(g5
g6
NtRp926
(dp927
S'isfamily'
p928
I0
sS'title'
p929
Vthe dj, chugging beer
p930
sS'farm'
p931
I3
sg13
g14
sS'ispublic'
p932
I1
sS'server'
p933
V2533
p934
sS'isfriend'
p935
I0
sS'secret'
p936
V7710e97efd
p937
sg21
S'http://farm3.static.flickr.com/2533/3917709823_7710e97efd.jpg'
p938
sS'owner'
p939
V91166845@N00
p940
sS'id'
p941
V3917709823
p942
sbag4
(g5
g6
NtRp943
(dp944
S'isfamily'
p945
I0
sS'title'
p946
VStabilizing the baby while chugging beer is just safe
p947
sS'farm'
p948
I9
sg13
g14
sS'ispublic'
p949
I1
sS'server'
p950
V8417
p951
sS'isfriend'
p952
I0
sS'secret'
p953
V79d0596caa
p954
sg21
S'http://farm9.static.flickr.com/8417/8978071698_79d0596caa.jpg'
p955
sS'owner'
p956
V54914644@N06
p957
sS'id'
p958
V8978071698
p959
sbag4
(g5
g6
NtRp960
(dp961
S'isfamily'
p962
I0
sS'title'
p963
VKyra Chugging Beer
p964
sS'farm'
p965
I4
sg13
g14
sS'ispublic'
p966
I1
sS'server'
p967
V3016
p968
sS'isfriend'
p969
I0
sS'secret'
p970
V2eaa721a7e
p971
sg21
S'http://farm4.static.flickr.com/3016/3035720767_2eaa721a7e.jpg'
p972
sS'owner'
p973
V83988826@N00
p974
sS'id'
p975
V3035720767
p976
sbag4
(g5
g6
NtRp977
(dp978
S'isfamily'
p979
I0
sS'title'
p980
Vzac & mike chug beer
p981
sS'farm'
p982
I8
sg13
g14
sS'ispublic'
p983
I1
sS'server'
p984
V7163
p985
sS'isfriend'
p986
I0
sS'secret'
p987
Ve61b716bf7
p988
sg21
S'http://farm8.static.flickr.com/7163/6698462775_e61b716bf7.jpg'
p989
sS'owner'
p990
V11907194@N05
p991
sS'id'
p992
V6698462775
p993
sbag4
(g5
g6
NtRp994
(dp995
S'isfamily'
p996
I0
sS'title'
p997
Vtom chug beer
p998
sS'farm'
p999
I4
sg13
g14
sS'ispublic'
p1000
I1
sS'server'
p1001
V3079
p1002
sS'isfriend'
p1003
I0
sS'secret'
p1004
V6ebbed9fee
p1005
sg21
S'http://farm4.static.flickr.com/3079/3209775279_6ebbed9fee.jpg'
p1006
sS'owner'
p1007
V27264829@N00
p1008
sS'id'
p1009
V3209775279
p1010
sbag4
(g5
g6
NtRp1011
(dp1012
S'isfamily'
p1013
I0
sS'title'
p1014
Vzac & mike chug beer
p1015
sS'farm'
p1016
I8
sg13
g14
sS'ispublic'
p1017
I1
sS'server'
p1018
V7020
p1019
sS'isfriend'
p1020
I0
sS'secret'
p1021
Vae84e17b51
p1022
sg21
S'http://farm8.static.flickr.com/7020/6698594803_ae84e17b51.jpg'
p1023
sS'owner'
p1024
V11907194@N05
p1025
sS'id'
p1026
V6698594803
p1027
sbag4
(g5
g6
NtRp1028
(dp1029
S'isfamily'
p1030
I0
sS'title'
p1031
Vme chugging beer
p1032
sS'farm'
p1033
I1
sg13
g14
sS'ispublic'
p1034
I1
sS'server'
p1035
V48
p1036
sS'isfriend'
p1037
I0
sS'secret'
p1038
V67ca9c0444
p1039
sg21
S'http://farm1.static.flickr.com/48/120011759_67ca9c0444.jpg'
p1040
sS'owner'
p1041
V80056406@N00
p1042
sS'id'
p1043
V120011759
p1044
sbag4
(g5
g6
NtRp1045
(dp1046
S'isfamily'
p1047
I0
sS'title'
p1048
VAlex, Candice and Kevin chug beer
p1049
sS'farm'
p1050
I3
sg13
g14
sS'ispublic'
p1051
I1
sS'server'
p1052
V2090
p1053
sS'isfriend'
p1054
I0
sS'secret'
p1055
V3c7e6b10b4
p1056
sg21
S'http://farm3.static.flickr.com/2090/2456571238_3c7e6b10b4.jpg'
p1057
sS'owner'
p1058
V38266617@N00
p1059
sS'id'
p1060
V2456571238
p1061
sbag4
(g5
g6
NtRp1062
(dp1063
S'isfamily'
p1064
I0
sS'title'
p1065
Vyou can look sexy chugging beer
p1066
sS'farm'
p1067
I4
sg13
g14
sS'ispublic'
p1068
I1
sS'server'
p1069
V3554
p1070
sS'isfriend'
p1071
I0
sS'secret'
p1072
Vdb56f06567
p1073
sg21
S'http://farm4.static.flickr.com/3554/3589290087_db56f06567.jpg'
p1074
sS'owner'
p1075
V21939301@N02
p1076
sS'id'
p1077
V3589290087
p1078
sbag4
(g5
g6
NtRp1079
(dp1080
S'isfamily'
p1081
I0
sS'title'
p1082
VTwo guys chugging beer
p1083
sS'farm'
p1084
I1
sg13
g14
sS'ispublic'
p1085
I1
sS'server'
p1086
V30
p1087
sS'isfriend'
p1088
I0
sS'secret'
p1089
Vcc7887ab7b
p1090
sg21
S'http://farm1.static.flickr.com/30/35777855_cc7887ab7b.jpg'
p1091
sS'owner'
p1092
V84706119@N00
p1093
sS'id'
p1094
V35777855
p1095
sbag4
(g5
g6
NtRp1096
(dp1097
S'isfamily'
p1098
I0
sS'title'
p1099
VMets Fan Chugs Beer
p1100
sS'farm'
p1101
I4
sg13
g14
sS'ispublic'
p1102
I1
sS'server'
p1103
V3651
p1104
sS'isfriend'
p1105
I0
sS'secret'
p1106
V79fdb58fe2
p1107
sg21
S'http://farm4.static.flickr.com/3651/3613367126_79fdb58fe2.jpg'
p1108
sS'owner'
p1109
V17398806@N00
p1110
sS'id'
p1111
V3613367126
p1112
sbag4
(g5
g6
NtRp1113
(dp1114
S'isfamily'
p1115
I0
sS'title'
p1116
Vtravis chugging beer
p1117
sS'farm'
p1118
I1
sg13
g14
sS'ispublic'
p1119
I1
sS'server'
p1120
V50
p1121
sS'isfriend'
p1122
I0
sS'secret'
p1123
V6164b00d9a
p1124
sg21
S'http://farm1.static.flickr.com/50/138004768_6164b00d9a.jpg'
p1125
sS'owner'
p1126
V90548135@N00
p1127
sS'id'
p1128
V138004768
p1129
sbag4
(g5
g6
NtRp1130
(dp1131
S'isfamily'
p1132
I0
sS'title'
p1133
VDave Grohl
p1134
sS'farm'
p1135
I7
sg13
g14
sS'ispublic'
p1136
I1
sS'server'
p1137
V6013
p1138
sS'isfriend'
p1139
I0
sS'secret'
p1140
Vd58206d6c6
p1141
sg21
S'http://farm7.static.flickr.com/6013/5926073088_d58206d6c6.jpg'
p1142
sS'owner'
p1143
V44937545@N03
p1144
sS'id'
p1145
V5926073088
p1146
sbag4
(g5
g6
NtRp1147
(dp1148
S'isfamily'
p1149
I0
sS'title'
p1150
VChugging beer from a baby bottle
p1151
sS'farm'
p1152
I5
sg13
g14
sS'ispublic'
p1153
I1
sS'server'
p1154
V4139
p1155
sS'isfriend'
p1156
I0
sS'secret'
p1157
V1327a36b8e
p1158
sg21
S'http://farm5.static.flickr.com/4139/4849756845_1327a36b8e.jpg'
p1159
sS'owner'
p1160
V42018036@N00
p1161
sS'id'
p1162
V4849756845
p1163
sbag4
(g5
g6
NtRp1164
(dp1165
S'isfamily'
p1166
I0
sS'title'
p1167
VGeorgia chugging beer on podium
p1168
sS'farm'
p1169
I2
sg13
g14
sS'ispublic'
p1170
I1
sS'server'
p1171
V1477
p1172
sS'isfriend'
p1173
I0
sS'secret'
p1174
V18d054469c
p1175
sg21
S'http://farm2.static.flickr.com/1477/24603878726_18d054469c.jpg'
p1176
sS'owner'
p1177
V61918845@N05
p1178
sS'id'
p1179
V24603878726
p1180
sbag4
(g5
g6
NtRp1181
(dp1182
S'isfamily'
p1183
I0
sS'title'
p1184
VEntire team chug beer in the hydrant
p1185
sS'farm'
p1186
I5
sg13
g14
sS'ispublic'
p1187
I1
sS'server'
p1188
V4093
p1189
sS'isfriend'
p1190
I0
sS'secret'
p1191
Vc024e0efa2
p1192
sg21
S'http://farm5.static.flickr.com/4093/4806779263_c024e0efa2.jpg'
p1193
sS'owner'
p1194
V82972606@N00
p1195
sS'id'
p1196
V4806779263
p1197
sbag4
(g5
g6
NtRp1198
(dp1199
S'isfamily'
p1200
I0
sS'title'
p1201
Vchug-beer-like-pro
p1202
sS'farm'
p1203
I6
sg13
g14
sS'ispublic'
p1204
I1
sS'server'
p1205
V5329
p1206
sS'isfriend'
p1207
I0
sS'secret'
p1208
Va91127c998
p1209
sg21
S'http://farm6.static.flickr.com/5329/8958639829_a91127c998.jpg'
p1210
sS'owner'
p1211
V97081306@N08
p1212
sS'id'
p1213
V8958639829
p1214
sbag4
(g5
g6
NtRp1215
(dp1216
S'isfamily'
p1217
I0
sS'title'
p1218
V8/365: August, Die She Must
p1219
sS'farm'
p1220
I4
sg13
g14
sS'ispublic'
p1221
I1
sS'server'
p1222
V3238
p1223
sS'isfriend'
p1224
I0
sS'secret'
p1225
V1cdb262ed6
p1226
sg21
S'http://farm4.static.flickr.com/3238/2724126962_1cdb262ed6.jpg'
p1227
sS'owner'
p1228
V28757493@N03
p1229
sS'id'
p1230
V2724126962
p1231
sbag4
(g5
g6
NtRp1232
(dp1233
S'isfamily'
p1234
I0
sS'title'
p1235
VWild Monkeys Chugging Beer
p1236
sS'farm'
p1237
I3
sg13
g14
sS'ispublic'
p1238
I1
sS'server'
p1239
V2307
p1240
sS'isfriend'
p1241
I0
sS'secret'
p1242
V5df0fb8b8f
p1243
sg21
S'http://farm3.static.flickr.com/2307/2331207483_5df0fb8b8f.jpg'
p1244
sS'owner'
p1245
V68876249@N00
p1246
sS'id'
p1247
V2331207483
p1248
sbag4
(g5
g6
NtRp1249
(dp1250
S'isfamily'
p1251
I0
sS'title'
p1252
VDSCF6564
p1253
sS'farm'
p1254
I8
sg13
g14
sS'ispublic'
p1255
I1
sS'server'
p1256
V7230
p1257
sS'isfriend'
p1258
I0
sS'secret'
p1259
Vcd24edd899
p1260
sg21
S'http://farm8.static.flickr.com/7230/7375486050_cd24edd899.jpg'
p1261
sS'owner'
p1262
V73989027@N06
p1263
sS'id'
p1264
V7375486050
p1265
sbag4
(g5
g6
NtRp1266
(dp1267
S'isfamily'
p1268
I0
sS'title'
p1269
VAlex, Candice and Kevin chug beer
p1270
sS'farm'
p1271
I3
sg13
g14
sS'ispublic'
p1272
I1
sS'server'
p1273
V2120
p1274
sS'isfriend'
p1275
I0
sS'secret'
p1276
V24df898beb
p1277
sg21
S'http://farm3.static.flickr.com/2120/2456571188_24df898beb.jpg'
p1278
sS'owner'
p1279
V38266617@N00
p1280
sS'id'
p1281
V2456571188
p1282
sbag4
(g5
g6
NtRp1283
(dp1284
S'isfamily'
p1285
I0
sS'title'
p1286
VWho's up for Beer Pong tonight? #tgif #beerpong #beerporn #chug #beer #gopong #drinkondrinks #drinkup #sgbars #serangoon #serangoongardens #northeast #singapore #sgtrend #sgfun #party #group #instalike #drinkdrankdrunk #welovebeer #sg
p1287
sS'farm'
p1288
I2
sg13
g14
sS'ispublic'
p1289
I1
sS'server'
p1290
V1460
p1291
sS'isfriend'
p1292
I0
sS'secret'
p1293
Vc2af6c13c8
p1294
sg21
S'http://farm2.static.flickr.com/1460/26278706826_c2af6c13c8.jpg'
p1295
sS'owner'
p1296
V135846811@N02
p1297
sS'id'
p1298
V26278706826
p1299
sbag4
(g5
g6
NtRp1300
(dp1301
S'isfamily'
p1302
I0
sS'title'
p1303
Vdad chugging beer balboa
p1304
sS'farm'
p1305
I9
sg13
g14
sS'ispublic'
p1306
I1
sS'server'
p1307
V8560
p1308
sS'isfriend'
p1309
I0
sS'secret'
p1310
Vafcf13af0a
p1311
sg21
S'http://farm9.static.flickr.com/8560/8697875273_afcf13af0a.jpg'
p1312
sS'owner'
p1313
V74051983@N06
p1314
sS'id'
p1315
V8697875273
p1316
sbag4
(g5
g6
NtRp1317
(dp1318
S'isfamily'
p1319
I0
sS'title'
p1320
Vask a stranger to chug beer in hydrant
p1321
sS'farm'
p1322
I7
sg13
g14
sS'ispublic'
p1323
I1
sS'server'
p1324
V6082
p1325
sS'isfriend'
p1326
I0
sS'secret'
p1327
V7ef17bc92c
p1328
sg21
S'http://farm7.static.flickr.com/6082/6127715985_7ef17bc92c.jpg'
p1329
sS'owner'
p1330
V71126486@N00
p1331
sS'id'
p1332
V6127715985
p1333
sbag4
(g5
g6
NtRp1334
(dp1335
S'isfamily'
p1336
I0
sS'title'
p1337
VJeff & Dan chug beers
p1338
sS'farm'
p1339
I2
sg13
g14
sS'ispublic'
p1340
I1
sS'server'
p1341
V1403
p1342
sS'isfriend'
p1343
I0
sS'secret'
p1344
Vb0cae40781
p1345
sg21
S'http://farm2.static.flickr.com/1403/1427897211_b0cae40781.jpg'
p1346
sS'owner'
p1347
V87838949@N00
p1348
sS'id'
p1349
V1427897211
p1350
sbag4
(g5
g6
NtRp1351
(dp1352
S'isfamily'
p1353
I0
sS'title'
p1354
Vask a stranger to chug beer in hydrant
p1355
sS'farm'
p1356
I7
sg13
g14
sS'ispublic'
p1357
I1
sS'server'
p1358
V6191
p1359
sS'isfriend'
p1360
I0
sS'secret'
p1361
V68a06432b3
p1362
sg21
S'http://farm7.static.flickr.com/6191/6127718723_68a06432b3.jpg'
p1363
sS'owner'
p1364
V71126486@N00
p1365
sS'id'
p1366
V6127718723
p1367
sbag4
(g5
g6
NtRp1368
(dp1369
S'isfamily'
p1370
I0
sS'title'
p1371
VIt's Oski, the Cal Bears' mascot
p1372
sS'farm'
p1373
I6
sg13
g14
sS'ispublic'
p1374
I1
sS'server'
p1375
V5494
p1376
sS'isfriend'
p1377
I0
sS'secret'
p1378
Va30316a0be
p1379
sg21
S'http://farm6.static.flickr.com/5494/10386072124_a30316a0be.jpg'
p1380
sS'owner'
p1381
V9827553@N07
p1382
sS'id'
p1383
V10386072124
p1384
sbag4
(g5
g6
NtRp1385
(dp1386
S'isfamily'
p1387
I0
sS'title'
p1388
Vhow much beer would a woodchuck chug if a woodchuck would chug beer?
p1389
sS'farm'
p1390
I1
sg13
g14
sS'ispublic'
p1391
I1
sS'server'
p1392
V53
p1393
sS'isfriend'
p1394
I0
sS'secret'
p1395
Ve410b32387
p1396
sg21
S'http://farm1.static.flickr.com/53/190280019_e410b32387.jpg'
p1397
sS'owner'
p1398
V73503466@N00
p1399
sS'id'
p1400
V190280019
p1401
sbag4
(g5
g6
NtRp1402
(dp1403
S'isfamily'
p1404
I0
sS'title'
p1405
VPicture 020
p1406
sS'farm'
p1407
I3
sg13
g14
sS'ispublic'
p1408
I1
sS'server'
p1409
V2074
p1410
sS'isfriend'
p1411
I0
sS'secret'
p1412
Vbd4eb40c62
p1413
sg21
S'http://farm3.static.flickr.com/2074/2488375454_bd4eb40c62.jpg'
p1414
sS'owner'
p1415
V24758498@N06
p1416
sS'id'
p1417
V2488375454
p1418
sbag4
(g5
g6
NtRp1419
(dp1420
S'isfamily'
p1421
I0
sS'title'
p1422
VStart of island tour 10am Brazilians chugging beer of course
p1423
sS'farm'
p1424
I7
sg13
g14
sS'ispublic'
p1425
I1
sS'server'
p1426
V6060
p1427
sS'isfriend'
p1428
I0
sS'secret'
p1429
Vbb017cdd37
p1430
sg21
S'http://farm7.static.flickr.com/6060/6299042111_bb017cdd37.jpg'
p1431
sS'owner'
p1432
V7417691@N03
p1433
sS'id'
p1434
V6299042111
p1435
sbag4
(g5
g6
NtRp1436
(dp1437
S'isfamily'
p1438
I0
sS'title'
p1439
VBoys chugging beer in lieu of garter toss
p1440
sS'farm'
p1441
I4
sg13
g14
sS'ispublic'
p1442
I1
sS'server'
p1443
V3137
p1444
sS'isfriend'
p1445
I0
sS'secret'
p1446
V4181190355
p1447
sg21
S'http://farm4.static.flickr.com/3137/2759461753_4181190355.jpg'
p1448
sS'owner'
p1449
V17386749@N00
p1450
sS'id'
p1451
V2759461753
p1452
sbag4
(g5
g6
NtRp1453
(dp1454
S'isfamily'
p1455
I0
sS'title'
p1456
Vaww...chugging beer on public transportation
p1457
sS'farm'
p1458
I4
sg13
g14
sS'ispublic'
p1459
I1
sS'server'
p1460
V3289
p1461
sS'isfriend'
p1462
I0
sS'secret'
p1463
V02f6b321ed
p1464
sg21
S'http://farm4.static.flickr.com/3289/3125425653_02f6b321ed.jpg'
p1465
sS'owner'
p1466
V29767468@N04
p1467
sS'id'
p1468
V3125425653
p1469
sbag4
(g5
g6
NtRp1470
(dp1471
S'isfamily'
p1472
I0
sS'title'
p1473
VBromance
p1474
sS'farm'
p1475
I8
sg13
g14
sS'ispublic'
p1476
I1
sS'server'
p1477
V7144
p1478
sS'isfriend'
p1479
I0
sS'secret'
p1480
V8eaf65a035
p1481
sg21
S'http://farm8.static.flickr.com/7144/6687271717_8eaf65a035.jpg'
p1482
sS'owner'
p1483
V48268217@N03
p1484
sS'id'
p1485
V6687271717
p1486
sbag4
(g5
g6
NtRp1487
(dp1488
S'isfamily'
p1489
I0
sS'title'
p1490
Vchugging beer outside Pardee in the snow
p1491
sS'farm'
p1492
I2
sg13
g14
sS'ispublic'
p1493
I1
sS'server'
p1494
V1347
p1495
sS'isfriend'
p1496
I0
sS'secret'
p1497
V9a1ceeda27
p1498
sg21
S'http://farm2.static.flickr.com/1347/660863707_9a1ceeda27.jpg'
p1499
sS'owner'
p1500
V9452743@N03
p1501
sS'id'
p1502
V660863707
p1503
sbag4
(g5
g6
NtRp1504
(dp1505
S'isfamily'
p1506
I0
sS'title'
p1507
VAfter the first chugged beer, they're off to grab bikes
p1508
sS'farm'
p1509
I3
sg13
g14
sS'ispublic'
p1510
I1
sS'server'
p1511
V2634
p1512
sS'isfriend'
p1513
I0
sS'secret'
p1514
V6f04330362
p1515
sg21
S'http://farm3.static.flickr.com/2634/3878978829_6f04330362.jpg'
p1516
sS'owner'
p1517
V38088055@N00
p1518
sS'id'
p1519
V3878978829
p1520
sbag4
(g5
g6
NtRp1521
(dp1522
S'isfamily'
p1523
I0
sS'title'
p1524
VReady to chug beer
p1525
sS'farm'
p1526
I4
sg13
g14
sS'ispublic'
p1527
I1
sS'server'
p1528
V3140
p1529
sS'isfriend'
p1530
I0
sS'secret'
p1531
V3b8d252fa7
p1532
sg21
S'http://farm4.static.flickr.com/3140/2956806814_3b8d252fa7.jpg'
p1533
sS'owner'
p1534
V27131420@N08
p1535
sS'id'
p1536
V2956806814
p1537
sbag4
(g5
g6
NtRp1538
(dp1539
S'isfamily'
p1540
I0
sS'title'
p1541
Vhot #nerd #girl #sexy #oslo #cute...
p1542
sS'farm'
p1543
I9
sg13
g14
sS'ispublic'
p1544
I1
sS'server'
p1545
V8498
p1546
sS'isfriend'
p1547
I0
sS'secret'
p1548
V17e919afa3
p1549
sg21
S'http://farm9.static.flickr.com/8498/8298978027_17e919afa3.jpg'
p1550
sS'owner'
p1551
V91392483@N04
p1552
sS'id'
p1553
V8298978027
p1554
sbag4
(g5
g6
NtRp1555
(dp1556
S'isfamily'
p1557
I0
sS'title'
p1558
VJulz beat all the boys chugging beers
p1559
sS'farm'
p1560
I2
sg13
g14
sS'ispublic'
p1561
I1
sS'server'
p1562
V1155
p1563
sS'isfriend'
p1564
I0
sS'secret'
p1565
Vf08bb18a6d
p1566
sg21
S'http://farm2.static.flickr.com/1155/624244707_f08bb18a6d.jpg'
p1567
sS'owner'
p1568
V72351307@N00
p1569
sS'id'
p1570
V624244707
p1571
sbag4
(g5
g6
NtRp1572
(dp1573
S'isfamily'
p1574
I0
sS'title'
p1575
VBombs Away
p1576
sS'farm'
p1577
I5
sg13
g14
sS'ispublic'
p1578
I1
sS'server'
p1579
V4092
p1580
sS'isfriend'
p1581
I0
sS'secret'
p1582
V23d074419f
p1583
sg21
S'http://farm5.static.flickr.com/4092/4957210996_23d074419f.jpg'
p1584
sS'owner'
p1585
V13849227@N00
p1586
sS'id'
p1587
V4957210996
p1588
sbag4
(g5
g6
NtRp1589
(dp1590
S'isfamily'
p1591
I0
sS'title'
p1592
VChugging beer, what better way to spend a party
p1593
sS'farm'
p1594
I5
sg13
g14
sS'ispublic'
p1595
I1
sS'server'
p1596
V4043
p1597
sS'isfriend'
p1598
I0
sS'secret'
p1599
V39f590e042
p1600
sg21
S'http://farm5.static.flickr.com/4043/4279004351_39f590e042.jpg'
p1601
sS'owner'
p1602
V30716896@N02
p1603
sS'id'
p1604
V4279004351
p1605
sbag4
(g5
g6
NtRp1606
(dp1607
S'isfamily'
p1608
I0
sS'title'
p1609
VSimon chugs beer at East
p1610
sS'farm'
p1611
I1
sg13
g14
sS'ispublic'
p1612
I1
sS'server'
p1613
V59
p1614
sS'isfriend'
p1615
I0
sS'secret'
p1616
Vd24aae887a
p1617
sg21
S'http://farm1.static.flickr.com/59/193156254_d24aae887a.jpg'
p1618
sS'owner'
p1619
V45797663@N00
p1620
sS'id'
p1621
V193156254
p1622
sbag4
(g5
g6
NtRp1623
(dp1624
S'isfamily'
p1625
I0
sS'title'
p1626
VBrad Keselowski Having A Cold One
p1627
sS'farm'
p1628
I9
sg13
g14
sS'ispublic'
p1629
I1
sS'server'
p1630
V8431
p1631
sS'isfriend'
p1632
I0
sS'secret'
p1633
Veee2c719da
p1634
sg21
S'http://farm9.static.flickr.com/8431/7668191154_eee2c719da.jpg'
p1635
sS'owner'
p1636
V43643630@N06
p1637
sS'id'
p1638
V7668191154
p1639
sbag4
(g5
g6
NtRp1640
(dp1641
S'isfamily'
p1642
I0
sS'title'
p1643
VChugging Beer @ World Pub or is it Pub World :)
p1644
sS'farm'
p1645
I2
sg13
g14
sS'ispublic'
p1646
I1
sS'server'
p1647
V1092
p1648
sS'isfriend'
p1649
I0
sS'secret'
p1650
Vfb1a3bf743
p1651
sg21
S'http://farm2.static.flickr.com/1092/846208921_fb1a3bf743.jpg'
p1652
sS'owner'
p1653
V10229382@N06
p1654
sS'id'
p1655
V846208921
p1656
sbag4
(g5
g6
NtRp1657
(dp1658
S'isfamily'
p1659
I0
sS'title'
p1660
VChugging beer out of baby bottles.
p1661
sS'farm'
p1662
I1
sg13
g14
sS'ispublic'
p1663
I1
sS'server'
p1664
V85
p1665
sS'isfriend'
p1666
I0
sS'secret'
p1667
V951e4a1d7c
p1668
sg21
S'http://farm1.static.flickr.com/85/247157036_951e4a1d7c.jpg'
p1669
sS'owner'
p1670
V36694304@N00
p1671
sS'id'
p1672
V247157036
p1673
sbag4
(g5
g6
NtRp1674
(dp1675
S'isfamily'
p1676
I0
sS'title'
p1677
Vway too many cubs fans at these games
p1678
sS'farm'
p1679
I1
sg13
g14
sS'ispublic'
p1680
I1
sS'server'
p1681
V47
p1682
sS'isfriend'
p1683
I0
sS'secret'
p1684
V1233925da5
p1685
sg21
S'http://farm1.static.flickr.com/47/132615653_1233925da5.jpg'
p1686
sS'owner'
p1687
V68845396@N00
p1688
sS'id'
p1689
V132615653
p1690
sbag4
(g5
g6
NtRp1691
(dp1692
S'isfamily'
p1693
I0
sS'title'
p1694
VBoys chugging beer in lieu of garter toss
p1695
sS'farm'
p1696
I4
sg13
g14
sS'ispublic'
p1697
I1
sS'server'
p1698
V3004
p1699
sS'isfriend'
p1700
I0
sS'secret'
p1701
Vd274319a3b
p1702
sg21
S'http://farm4.static.flickr.com/3004/2759459893_d274319a3b.jpg'
p1703
sS'owner'
p1704
V17386749@N00
p1705
sS'id'
p1706
V2759459893
p1707
sbag4
(g5
g6
NtRp1708
(dp1709
S'isfamily'
p1710
I0
sS'title'
p1711
VGuys chugging beer from baby bottles. Best shower idea ever. Congrats Meg & Paul!
p1712
sS'farm'
p1713
I9
sg13
g14
sS'ispublic'
p1714
I1
sS'server'
p1715
V8475
p1716
sS'isfriend'
p1717
I0
sS'secret'
p1718
V8c07985947
p1719
sg21
S'http://farm9.static.flickr.com/8475/8110986403_8c07985947.jpg'
p1720
sS'owner'
p1721
V24965986@N00
p1722
sS'id'
p1723
V8110986403
p1724
sbag4
(g5
g6
NtRp1725
(dp1726
S'isfamily'
p1727
I0
sS'title'
p1728
VLadies love Mike Pt. 3
p1729
sS'farm'
p1730
I1
sg13
g14
sS'ispublic'
p1731
I1
sS'server'
p1732
V14
p1733
sS'isfriend'
p1734
I0
sS'secret'
p1735
V953a4978eb
p1736
sg21
S'http://farm1.static.flickr.com/14/18964261_953a4978eb.jpg'
p1737
sS'owner'
p1738
V80295621@N00
p1739
sS'id'
p1740
V18964261
p1741
sbag4
(g5
g6
NtRp1742
(dp1743
S'isfamily'
p1744
I0
sS'title'
p1745
VCanadian girl #1
p1746
sS'farm'
p1747
I5
sg13
g14
sS'ispublic'
p1748
I1
sS'server'
p1749
V4057
p1750
sS'isfriend'
p1751
I0
sS'secret'
p1752
Vcf9153955c
p1753
sg21
S'http://farm5.static.flickr.com/4057/4441516481_cf9153955c.jpg'
p1754
sS'owner'
p1755
V24530695@N07
p1756
sS'id'
p1757
V4441516481
p1758
sbag4
(g5
g6
NtRp1759
(dp1760
S'isfamily'
p1761
I0
sS'title'
p1762
Vme and alex chugging beers
p1763
sS'farm'
p1764
I2
sg13
g14
sS'ispublic'
p1765
I1
sS'server'
p1766
V1196
p1767
sS'isfriend'
p1768
I0
sS'secret'
p1769
V8f40633e8a
p1770
sg21
S'http://farm2.static.flickr.com/1196/1479527938_8f40633e8a.jpg'
p1771
sS'owner'
p1772
V13589779@N08
p1773
sS'id'
p1774
V1479527938
p1775
sbag4
(g5
g6
NtRp1776
(dp1777
S'isfamily'
p1778
I0
sS'title'
p1779
VChug Chug Chug!  Beer garden in the Englischer Gardens
p1780
sS'farm'
p1781
I1
sg13
g14
sS'ispublic'
p1782
I1
sS'server'
p1783
V10
p1784
sS'isfriend'
p1785
I0
sS'secret'
p1786
V70df31b76c
p1787
sg21
S'http://farm1.static.flickr.com/10/11414532_70df31b76c.jpg'
p1788
sS'owner'
p1789
V52437397@N00
p1790
sS'id'
p1791
V11414532
p1792
sbag4
(g5
g6
NtRp1793
(dp1794
S'isfamily'
p1795
I0
sS'title'
p1796
VMy mate Josh and me
p1797
sS'farm'
p1798
I1
sg13
g14
sS'ispublic'
p1799
I1
sS'server'
p1800
V107
p1801
sS'isfriend'
p1802
I0
sS'secret'
p1803
Vef0b610ad1
p1804
sg21
S'http://farm1.static.flickr.com/107/284275361_ef0b610ad1.jpg'
p1805
sS'owner'
p1806
V18869027@N00
p1807
sS'id'
p1808
V284275361
p1809
sbag4
(g5
g6
NtRp1810
(dp1811
S'isfamily'
p1812
I0
sS'title'
p1813
VBaby bottle beer guzzling
p1814
sS'farm'
p1815
I4
sg13
g14
sS'ispublic'
p1816
I1
sS'server'
p1817
V3633
p1818
sS'isfriend'
p1819
I0
sS'secret'
p1820
Vb12b3c2a3b
p1821
sg21
S'http://farm4.static.flickr.com/3633/3361302945_b12b3c2a3b.jpg'
p1822
sS'owner'
p1823
V9710566@N05
p1824
sS'id'
p1825
V3361302945
p1826
sbag4
(g5
g6
NtRp1827
(dp1828
S'isfamily'
p1829
I0
sS'title'
p1830
VBig beach
p1831
sS'farm'
p1832
I4
sg13
g14
sS'ispublic'
p1833
I1
sS'server'
p1834
V3638
p1835
sS'isfriend'
p1836
I0
sS'secret'
p1837
Vf9a005e016
p1838
sg21
S'http://farm4.static.flickr.com/3638/3388584476_f9a005e016.jpg'
p1839
sS'owner'
p1840
V28161423@N07
p1841
sS'id'
p1842
V3388584476
p1843
sbag4
(g5
g6
NtRp1844
(dp1845
S'isfamily'
p1846
I0
sS'title'
p1847
VKaeng Nyui Falls (1)
p1848
sS'farm'
p1849
I6
sg13
g14
sS'ispublic'
p1850
I1
sS'server'
p1851
V5559
p1852
sS'isfriend'
p1853
I0
sS'secret'
p1854
Vcc19bd728a
p1855
sg21
S'http://farm6.static.flickr.com/5559/14718206589_cc19bd728a.jpg'
p1856
sS'owner'
p1857
V69207299@N00
p1858
sS'id'
p1859
V14718206589
p1860
sbag4
(g5
g6
NtRp1861
(dp1862
S'isfamily'
p1863
I0
sS'title'
p1864
VI Smell a Frat The Daily March 7, 2011 Justin Rocket Silverman Richie Budd Frat Box
p1865
sS'farm'
p1866
I4
sg13
g14
sS'ispublic'
p1867
I1
sS'server'
p1868
V3268
p1869
sS'isfriend'
p1870
I0
sS'secret'
p1871
V433efa8feb
p1872
sg21
S'http://farm4.static.flickr.com/3268/5697406175_433efa8feb.jpg'
p1873
sS'owner'
p1874
V65557999@N00
p1875
sS'id'
p1876
V5697406175
p1877
sbag4
(g5
g6
NtRp1878
(dp1879
S'isfamily'
p1880
I0
sS'title'
p1881
VMullet Chug
p1882
sS'farm'
p1883
I3
sg13
g14
sS'ispublic'
p1884
I1
sS'server'
p1885
V2149
p1886
sS'isfriend'
p1887
I0
sS'secret'
p1888
Vdba8e50473
p1889
sg21
S'http://farm3.static.flickr.com/2149/1919915318_dba8e50473.jpg'
p1890
sS'owner'
p1891
V59318908@N00
p1892
sS'id'
p1893
V1919915318
p1894
sbag4
(g5
g6
NtRp1895
(dp1896
S'isfamily'
p1897
I0
sS'title'
p1898
VGOTHAMIST 3/5/2011 COME ON GUY at Scope NY C'mon Guy
p1899
sS'farm'
p1900
I6
sg13
g14
sS'ispublic'
p1901
I1
sS'server'
p1902
V5134
p1903
sS'isfriend'
p1904
I0
sS'secret'
p1905
V9ec87ae704
p1906
sg21
S'http://farm6.static.flickr.com/5134/5511064622_9ec87ae704.jpg'
p1907
sS'owner'
p1908
V65557999@N00
p1909
sS'id'
p1910
V5511064622
p1911
sbag4
(g5
g6
NtRp1912
(dp1913
S'isfamily'
p1914
I0
sS'title'
p1915
VFred's Had Enough
p1916
sS'farm'
p1917
I1
sg13
g14
sS'ispublic'
p1918
I1
sS'server'
p1919
V6
sS'isfriend'
p1920
I0
sS'secret'
p1921
V47bb705a9a
p1922
sg21
S'http://farm1.static.flickr.com/6/7459311_47bb705a9a.jpg'
p1923
sS'owner'
p1924
V51612898@N00
p1925
sS'id'
p1926
V7459311
p1927
sbag4
(g5
g6
NtRp1928
(dp1929
S'isfamily'
p1930
I0
sS'title'
p1931
VChugging Beer in a Bag at the Drive-In
p1932
sS'farm'
p1933
I4
sg13
g14
sS'ispublic'
p1934
I1
sS'server'
p1935
V3112
p1936
sS'isfriend'
p1937
I0
sS'secret'
p1938
Ve2bbcdae2c
p1939
sg21
S'http://farm4.static.flickr.com/3112/2770426131_e2bbcdae2c.jpg'
p1940
sS'owner'
p1941
V9343362@N06
p1942
sS'id'
p1943
V2770426131
p1944
sbag4
(g5
g6
NtRp1945
(dp1946
S'isfamily'
p1947
I0
sS'title'
p1948
VLil\u2019 Reds
p1949
sS'farm'
p1950
I4
sg13
g14
sS'ispublic'
p1951
I1
sS'server'
p1952
V3726
p1953
sS'isfriend'
p1954
I0
sS'secret'
p1955
V3e400e1587
p1956
sg21
S'http://farm4.static.flickr.com/3726/9601547548_3e400e1587.jpg'
p1957
sS'owner'
p1958
V72958333@N02
p1959
sS'id'
p1960
V9601547548
p1961
sbag4
(g5
g6
NtRp1962
(dp1963
S'isfamily'
p1964
I0
sS'title'
p1965
VBeer Joe (Jon Glaser)
p1966
sS'farm'
p1967
I9
sg13
g14
sS'ispublic'
p1968
I1
sS'server'
p1969
V8500
p1970
sS'isfriend'
p1971
I0
sS'secret'
p1972
V4f98d16c0b
p1973
sg21
S'http://farm9.static.flickr.com/8500/8331720116_4f98d16c0b.jpg'
p1974
sS'owner'
p1975
V58355319@N00
p1976
sS'id'
p1977
V8331720116
p1978
sbag4
(g5
g6
NtRp1979
(dp1980
S'isfamily'
p1981
I0
sS'title'
p1982
VNY MAG 3/5/2011 COME ON GUY at Scope NY C'mon Guy
p1983
sS'farm'
p1984
I6
sg13
g14
sS'ispublic'
p1985
I1
sS'server'
p1986
V5053
p1987
sS'isfriend'
p1988
I0
sS'secret'
p1989
V1453701e49
p1990
sg21
S'http://farm6.static.flickr.com/5053/5510426883_1453701e49.jpg'
p1991
sS'owner'
p1992
V65557999@N00
p1993
sS'id'
p1994
V5510426883
p1995
sbag4
(g5
g6
NtRp1996
(dp1997
S'isfamily'
p1998
I0
sS'title'
p1999
VEllie demostrates the proper grip for chugging beer.
p2000
sS'farm'
p2001
I6
sg13
g14
sS'ispublic'
p2002
I1
sS'server'
p2003
V5321
p2004
sS'isfriend'
p2005
I0
sS'secret'
p2006
V9f208cf867
p2007
sg21
S'http://farm6.static.flickr.com/5321/7109663593_9f208cf867.jpg'
p2008
sS'owner'
p2009
V75072765@N06
p2010
sS'id'
p2011
V7109663593
p2012
sbag4
(g5
g6
NtRp2013
(dp2014
S'isfamily'
p2015
I0
sS'title'
p2016
VChugging Beer in the Grand Prix
p2017
sS'farm'
p2018
I2
sg13
g14
sS'ispublic'
p2019
I1
sS'server'
p2020
V1212
p2021
sS'isfriend'
p2022
I0
sS'secret'
p2023
Vefb6973f48
p2024
sg21
S'http://farm2.static.flickr.com/1212/562391726_efb6973f48.jpg'
p2025
sS'owner'
p2026
V8357170@N06
p2027
sS'id'
p2028
V562391726
p2029
sbag4
(g5
g6
NtRp2030
(dp2031
S'isfamily'
p2032
I0
sS'title'
p2033
Vcharlie falls out of his chair while chugging beer...
p2034
sS'farm'
p2035
I3
sg13
g14
sS'ispublic'
p2036
I1
sS'server'
p2037
V2169
p2038
sS'isfriend'
p2039
I0
sS'secret'
p2040
V8567d538d8
p2041
sg21
S'http://farm3.static.flickr.com/2169/1720097984_8567d538d8.jpg'
p2042
sS'owner'
p2043
V37648760@N00
p2044
sS'id'
p2045
V1720097984
p2046
sbag4
(g5
g6
NtRp2047
(dp2048
S'isfamily'
p2049
I0
sS'title'
p2050
VIMG_6610.JPG
p2051
sS'farm'
p2052
I2
sg13
g14
sS'ispublic'
p2053
I1
sS'server'
p2054
V1145
p2055
sS'isfriend'
p2056
I0
sS'secret'
p2057
Vdf140774e8
p2058
sg21
S'http://farm2.static.flickr.com/1145/699512243_df140774e8.jpg'
p2059
sS'owner'
p2060
V56886460@N00
p2061
sS'id'
p2062
V699512243
p2063
sbag4
(g5
g6
NtRp2064
(dp2065
S'isfamily'
p2066
I0
sS'title'
p2067
VShadow Play
p2068
sS'farm'
p2069
I2
sg13
g14
sS'ispublic'
p2070
I1
sS'server'
p2071
V1096
p2072
sS'isfriend'
p2073
I0
sS'secret'
p2074
Ve9bf0081be
p2075
sg21
S'http://farm2.static.flickr.com/1096/993233819_e9bf0081be.jpg'
p2076
sS'owner'
p2077
V76446886@N00
p2078
sS'id'
p2079
V993233819
p2080
sbag4
(g5
g6
NtRp2081
(dp2082
S'isfamily'
p2083
I0
sS'title'
p2084
VPink Shirts Sink Ships
p2085
sS'farm'
p2086
I2
sg13
g14
sS'ispublic'
p2087
I1
sS'server'
p2088
V1152
p2089
sS'isfriend'
p2090
I0
sS'secret'
p2091
V8c91920edb
p2092
sg21
S'http://farm2.static.flickr.com/1152/4728915273_8c91920edb.jpg'
p2093
sS'owner'
p2094
V41005532@N07
p2095
sS'id'
p2096
V4728915273
p2097
sbag4
(g5
g6
NtRp2098
(dp2099
S'isfamily'
p2100
I0
sS'title'
p2101
VHHH
p2102
sS'farm'
p2103
I2
sg13
g14
sS'ispublic'
p2104
I1
sS'server'
p2105
V1175
p2106
sS'isfriend'
p2107
I0
sS'secret'
p2108
Vab9527f529
p2109
sg21
S'http://farm2.static.flickr.com/1175/1358243676_ab9527f529.jpg'
p2110
sS'owner'
p2111
V11712529@N00
p2112
sS'id'
p2113
V1358243676
p2114
sbag4
(g5
g6
NtRp2115
(dp2116
S'isfamily'
p2117
I0
sS'title'
p2118
VExercising my god given right to chug beer and hold an american flag pole like it was my penis #america #4th #umerica #independence #freedomisntfree #beer #instamood
p2119
sS'farm'
p2120
I9
sg13
g14
sS'ispublic'
p2121
I1
sS'server'
p2122
V8292
p2123
sS'isfriend'
p2124
I0
sS'secret'
p2125
V0e6bbd73d1
p2126
sg21
S'http://farm9.static.flickr.com/8292/7503944824_0e6bbd73d1.jpg'
p2127
sS'owner'
p2128
V26379391@N06
p2129
sS'id'
p2130
V7503944824
p2131
sbag4
(g5
g6
NtRp2132
(dp2133
S'isfamily'
p2134
I0
sS'title'
p2135
VJanuary 24, 2009
p2136
sS'farm'
p2137
I4
sg13
g14
sS'ispublic'
p2138
I1
sS'server'
p2139
V3396
p2140
sS'isfriend'
p2141
I0
sS'secret'
p2142
Va5704b66e2
p2143
sg21
S'http://farm4.static.flickr.com/3396/3232065239_a5704b66e2.jpg'
p2144
sS'owner'
p2145
V56602674@N00
p2146
sS'id'
p2147
V3232065239
p2148
sbag4
(g5
g6
NtRp2149
(dp2150
S'isfamily'
p2151
I0
sS'title'
p2152
VCHINA DUNDON
p2153
sS'farm'
p2154
I8
sg13
g14
sS'ispublic'
p2155
I1
sS'server'
p2156
V7673
p2157
sS'isfriend'
p2158
I0
sS'secret'
p2159
Vd72ca033be
p2160
sg21
S'http://farm8.static.flickr.com/7673/16982461170_d72ca033be.jpg'
p2161
sS'owner'
p2162
V130788304@N07
p2163
sS'id'
p2164
V16982461170
p2165
sbag4
(g5
g6
NtRp2166
(dp2167
S'isfamily'
p2168
I0
sS'title'
p2169
VIMG_0249
p2170
sS'farm'
p2171
I4
sg13
g14
sS'ispublic'
p2172
I1
sS'server'
p2173
V3580
p2174
sS'isfriend'
p2175
I0
sS'secret'
p2176
V8a5250648e
p2177
sg21
S'http://farm4.static.flickr.com/3580/3803049470_8a5250648e.jpg'
p2178
sS'owner'
p2179
V31844816@N04
p2180
sS'id'
p2181
V3803049470
p2182
sbag4
(g5
g6
NtRp2183
(dp2184
S'isfamily'
p2185
I0
sS'title'
p2186
VIMG_0200
p2187
sS'farm'
p2188
I4
sg13
g14
sS'ispublic'
p2189
I1
sS'server'
p2190
V3187
p2191
sS'isfriend'
p2192
I0
sS'secret'
p2193
Vb9f78c3d9e
p2194
sg21
S'http://farm4.static.flickr.com/3187/3107225479_b9f78c3d9e.jpg'
p2195
sS'owner'
p2196
V29288566@N00
p2197
sS'id'
p2198
V3107225479
p2199
sbag4
(g5
g6
NtRp2200
(dp2201
S'isfamily'
p2202
I0
sS'title'
p2203
VChug
p2204
sS'farm'
p2205
I1
sg13
g14
sS'ispublic'
p2206
I1
sS'server'
p2207
V25
p2208
sS'isfriend'
p2209
I0
sS'secret'
p2210
V55e0502a67
p2211
sg21
S'http://farm1.static.flickr.com/25/60192194_55e0502a67.jpg'
p2212
sS'owner'
p2213
V63206810@N00
p2214
sS'id'
p2215
V60192194
p2216
sbag4
(g5
g6
NtRp2217
(dp2218
S'isfamily'
p2219
I0
sS'title'
p2220
VThe Game
p2221
sS'farm'
p2222
I4
sg13
g14
sS'ispublic'
p2223
I1
sS'server'
p2224
V3148
p2225
sS'isfriend'
p2226
I0
sS'secret'
p2227
V3e10e3e599
p2228
sg21
S'http://farm4.static.flickr.com/3148/2661556661_3e10e3e599.jpg'
p2229
sS'owner'
p2230
V16558780@N00
p2231
sS'id'
p2232
V2661556661
p2233
sbag4
(g5
g6
NtRp2234
(dp2235
S'isfamily'
p2236
I0
sS'title'
p2237
Vday 228 of 365
p2238
sS'farm'
p2239
I3
sg13
g14
sS'ispublic'
p2240
I1
sS'server'
p2241
V2385
p2242
sS'isfriend'
p2243
I0
sS'secret'
p2244
V493ad07632
p2245
sg21
S'http://farm3.static.flickr.com/2385/1558702966_493ad07632.jpg'
p2246
sS'owner'
p2247
V41645317@N00
p2248
sS'id'
p2249
V1558702966
p2250
sbag4
(g5
g6
NtRp2251
(dp2252
S'isfamily'
p2253
I0
sS'title'
p2254
Vjared chugging beer with dave in ravello.jpg
p2255
sS'farm'
p2256
I8
sg13
g14
sS'ispublic'
p2257
I1
sS'server'
p2258
V7347
p2259
sS'isfriend'
p2260
I0
sS'secret'
p2261
Vdde2def4ff
p2262
sg21
S'http://farm8.static.flickr.com/7347/10739515474_dde2def4ff.jpg'
p2263
sS'owner'
p2264
V56957330@N07
p2265
sS'id'
p2266
V10739515474
p2267
sbag4
(g5
g6
NtRp2268
(dp2269
S'isfamily'
p2270
I0
sS'title'
p2271
VBeer + Hockey
p2272
sS'farm'
p2273
I3
sg13
g14
sS'ispublic'
p2274
I1
sS'server'
p2275
V2122
p2276
sS'isfriend'
p2277
I0
sS'secret'
p2278
V85615676ba
p2279
sg21
S'http://farm3.static.flickr.com/2122/2195406054_85615676ba.jpg'
p2280
sS'owner'
p2281
V27988669@N00
p2282
sS'id'
p2283
V2195406054
p2284
sbag4
(g5
g6
NtRp2285
(dp2286
S'isfamily'
p2287
I0
sS'title'
p2288
VBeer Joe (Jon Glaser)
p2289
sS'farm'
p2290
I9
sg13
g14
sS'ispublic'
p2291
I1
sS'server'
p2292
V8213
p2293
sS'isfriend'
p2294
I0
sS'secret'
p2295
Vcda2bd8b9e
p2296
sg21
S'http://farm9.static.flickr.com/8213/8331719462_cda2bd8b9e.jpg'
p2297
sS'owner'
p2298
V58355319@N00
p2299
sS'id'
p2300
V8331719462
p2301
sbag4
(g5
g6
NtRp2302
(dp2303
S'isfamily'
p2304
I0
sS'title'
p2305
Vfinal drugs 5
p2306
sS'farm'
p2307
I5
sg13
g14
sS'ispublic'
p2308
I1
sS'server'
p2309
V4087
p2310
sS'isfriend'
p2311
I0
sS'secret'
p2312
V669b9670ab
p2313
sg21
S'http://farm5.static.flickr.com/4087/5053056762_669b9670ab.jpg'
p2314
sS'owner'
p2315
V53572011@N05
p2316
sS'id'
p2317
V5053056762
p2318
sbag4
(g5
g6
NtRp2319
(dp2320
S'isfamily'
p2321
I0
sS'title'
p2322
VBill S
p2323
sS'farm'
p2324
I1
sg13
g14
sS'ispublic'
p2325
I1
sS'server'
p2326
V22
p2327
sS'isfriend'
p2328
I0
sS'secret'
p2329
V91acfe304b
p2330
sg21
S'http://farm1.static.flickr.com/22/33320953_91acfe304b.jpg'
p2331
sS'owner'
p2332
V48805612@N00
p2333
sS'id'
p2334
V33320953
p2335
sbag4
(g5
g6
NtRp2336
(dp2337
S'isfamily'
p2338
I0
sS'title'
p2339
VThe Secret
p2340
sS'farm'
p2341
I2
sg13
g14
sS'ispublic'
p2342
I1
sS'server'
p2343
V1159
p2344
sS'isfriend'
p2345
I0
sS'secret'
p2346
V34e1816be4
p2347
sg21
S'http://farm2.static.flickr.com/1159/827716757_34e1816be4.jpg'
p2348
sS'owner'
p2349
V38133374@N00
p2350
sS'id'
p2351
V827716757
p2352
sbag4
(g5
g6
NtRp2353
(dp2354
S'isfamily'
p2355
I0
sS'title'
p2356
Vchugging beer + high altitude = dizzy Chi
p2357
sS'farm'
p2358
I3
sg13
g14
sS'ispublic'
p2359
I1
sS'server'
p2360
V2444
p2361
sS'isfriend'
p2362
I0
sS'secret'
p2363
Vf457ab767b
p2364
sg21
S'http://farm3.static.flickr.com/2444/3751622815_f457ab767b.jpg'
p2365
sS'owner'
p2366
V23465053@N05
p2367
sS'id'
p2368
V3751622815
p2369
sbag4
(g5
g6
NtRp2370
(dp2371
S'isfamily'
p2372
I0
sS'title'
p2373
VThe Friday Night Boys
p2374
sS'farm'
p2375
I3
sg13
g14
sS'ispublic'
p2376
I1
sS'server'
p2377
V2655
p2378
sS'isfriend'
p2379
I0
sS'secret'
p2380
Vf2b6776676
p2381
sg21
S'http://farm3.static.flickr.com/2655/3756198661_f2b6776676.jpg'
p2382
sS'owner'
p2383
V32304346@N06
p2384
sS'id'
p2385
V3756198661
p2386
sbag4
(g5
g6
NtRp2387
(dp2388
S'isfamily'
p2389
I0
sS'title'
p2390
VShower game chugging beer out of a baby bottle
p2391
sS'farm'
p2392
I2
sg13
g14
sS'ispublic'
p2393
I1
sS'server'
p2394
V1066
p2395
sS'isfriend'
p2396
I0
sS'secret'
p2397
Vc0284a5064
p2398
sg21
S'http://farm2.static.flickr.com/1066/948023084_c0284a5064.jpg'
p2399
sS'owner'
p2400
V32214265@N00
p2401
sS'id'
p2402
V948023084
p2403
sbag4
(g5
g6
NtRp2404
(dp2405
S'isfamily'
p2406
I0
sS'title'
p2407
VSugar and Pirate Spice
p2408
sS'farm'
p2409
I3
sg13
g14
sS'ispublic'
p2410
I1
sS'server'
p2411
V2548
p2412
sS'isfriend'
p2413
I0
sS'secret'
p2414
V5b7f18c989
p2415
sg21
S'http://farm3.static.flickr.com/2548/3953193137_5b7f18c989.jpg'
p2416
sS'owner'
p2417
V36711960@N05
p2418
sS'id'
p2419
V3953193137
p2420
sbag4
(g5
g6
NtRp2421
(dp2422
S'isfamily'
p2423
I0
sS'title'
p2424
VOnly the best for Sloshball! (Kickball + chug beer at 2nd base) I will ref- bad knee
p2425
sS'farm'
p2426
I3
sg13
g14
sS'ispublic'
p2427
I1
sS'server'
p2428
V2598
p2429
sS'isfriend'
p2430
I0
sS'secret'
p2431
V15371d7717
p2432
sg21
S'http://farm3.static.flickr.com/2598/3668681279_15371d7717.jpg'
p2433
sS'owner'
p2434
V22879975@N05
p2435
sS'id'
p2436
V3668681279
p2437
sbag4
(g5
g6
NtRp2438
(dp2439
S'isfamily'
p2440
I0
sS'title'
p2441
V102_0211
p2442
sS'farm'
p2443
I2
sg13
g14
sS'ispublic'
p2444
I1
sS'server'
p2445
V1085
p2446
sS'isfriend'
p2447
I0
sS'secret'
p2448
Ve96f99cb88
p2449
sg21
S'http://farm2.static.flickr.com/1085/931659440_e96f99cb88.jpg'
p2450
sS'owner'
p2451
V10624819@N05
p2452
sS'id'
p2453
V931659440
p2454
sbag4
(g5
g6
NtRp2455
(dp2456
S'isfamily'
p2457
I0
sS'title'
p2458
VHammered Man
p2459
sS'farm'
p2460
I1
sg13
g14
sS'ispublic'
p2461
I1
sS'server'
p2462
V30
p2463
sS'isfriend'
p2464
I0
sS'secret'
p2465
Vcb7cd28848
p2466
sg21
S'http://farm1.static.flickr.com/30/60775605_cb7cd28848.jpg'
p2467
sS'owner'
p2468
V37771117@N00
p2469
sS'id'
p2470
V60775605
p2471
sbag4
(g5
g6
NtRp2472
(dp2473
S'isfamily'
p2474
I0
sS'title'
p2475
VChug
p2476
sS'farm'
p2477
I3
sg13
g14
sS'ispublic'
p2478
I1
sS'server'
p2479
V2058
p2480
sS'isfriend'
p2481
I0
sS'secret'
p2482
Vc0ceb031fd
p2483
sg21
S'http://farm3.static.flickr.com/2058/2175286156_c0ceb031fd.jpg'
p2484
sS'owner'
p2485
V22523090@N05
p2486
sS'id'
p2487
V2175286156
p2488
sbag4
(g5
g6
NtRp2489
(dp2490
S'isfamily'
p2491
I0
sS'title'
p2492
VDay 6 - Riding the Disney Monorail
p2493
sS'farm'
p2494
I9
sg13
g14
sS'ispublic'
p2495
I1
sS'server'
p2496
V8321
p2497
sS'isfriend'
p2498
I0
sS'secret'
p2499
V3dbe5fee90
p2500
sg21
S'http://farm9.static.flickr.com/8321/7973920744_3dbe5fee90.jpg'
p2501
sS'owner'
p2502
V12440183@N04
p2503
sS'id'
p2504
V7973920744
p2505
sbag4
(g5
g6
NtRp2506
(dp2507
S'isfamily'
p2508
I0
sS'title'
p2509
VChugging Beer Contest, Coco won...4 second pint...insane...
p2510
sS'farm'
p2511
I4
sg13
g14
sS'ispublic'
p2512
I1
sS'server'
p2513
V3085
p2514
sS'isfriend'
p2515
I0
sS'secret'
p2516
V9e2ae378b5
p2517
sg21
S'http://farm4.static.flickr.com/3085/2623597758_9e2ae378b5.jpg'
p2518
sS'owner'
p2519
V32068889@N00
p2520
sS'id'
p2521
V2623597758
p2522
sbag4
(g5
g6
NtRp2523
(dp2524
S'isfamily'
p2525
I0
sS'title'
p2526
VCan't sleep. Chug beers. #ivegotanswers ;-)
p2527
sS'farm'
p2528
I6
sg13
g14
sS'ispublic'
p2529
I1
sS'server'
p2530
V5542
p2531
sS'isfriend'
p2532
I0
sS'secret'
p2533
V978baeaa7e
p2534
sg21
S'http://farm6.static.flickr.com/5542/14579433966_978baeaa7e.jpg'
p2535
sS'owner'
p2536
V98846905@N04
p2537
sS'id'
p2538
V14579433966
p2539
sbag4
(g5
g6
NtRp2540
(dp2541
S'isfamily'
p2542
I0
sS'title'
p2543
VChug!  Chug!  Chug!
p2544
sS'farm'
p2545
I4
sg13
g14
sS'ispublic'
p2546
I1
sS'server'
p2547
V3149
p2548
sS'isfriend'
p2549
I0
sS'secret'
p2550
V8aed823e6a
p2551
sg21
S'http://farm4.static.flickr.com/3149/2556729651_8aed823e6a.jpg'
p2552
sS'owner'
p2553
V10092478@N03
p2554
sS'id'
p2555
V2556729651
p2556
sbag4
(g5
g6
NtRp2557
(dp2558
S'isfamily'
p2559
I0
sS'title'
p2560
VTartu mayor
p2561
sS'farm'
p2562
I5
sg13
g14
sS'ispublic'
p2563
I1
sS'server'
p2564
V4014
p2565
sS'isfriend'
p2566
I0
sS'secret'
p2567
V941d3dd6e2
p2568
sg21
S'http://farm5.static.flickr.com/4014/4569695885_941d3dd6e2.jpg'
p2569
sS'owner'
p2570
V21135381@N04
p2571
sS'id'
p2572
V4569695885
p2573
sbag4
(g5
g6
NtRp2574
(dp2575
S'isfamily'
p2576
I0
sS'title'
p2577
VStupidity
p2578
sS'farm'
p2579
I1
sg13
g14
sS'ispublic'
p2580
I1
sS'server'
p2581
V36
p2582
sS'isfriend'
p2583
I0
sS'secret'
p2584
V880aaa327d
p2585
sg21
S'http://farm1.static.flickr.com/36/75837928_880aaa327d.jpg'
p2586
sS'owner'
p2587
V90075944@N00
p2588
sS'id'
p2589
V75837928
p2590
sbag4
(g5
g6
NtRp2591
(dp2592
S'isfamily'
p2593
I0
sS'title'
p2594
VHuskers Game 028
p2595
sS'farm'
p2596
I4
sg13
g14
sS'ispublic'
p2597
I1
sS'server'
p2598
V3183
p2599
sS'isfriend'
p2600
I0
sS'secret'
p2601
V029bc0020e
p2602
sg21
S'http://farm4.static.flickr.com/3183/2908725914_029bc0020e.jpg'
p2603
sS'owner'
p2604
V8056250@N05
p2605
sS'id'
p2606
V2908725914
p2607
sbag4
(g5
g6
NtRp2608
(dp2609
S'isfamily'
p2610
I0
sS'title'
p2611
V10/27/12.....Katherine's Baby Shower
p2612
sS'farm'
p2613
I9
sg13
g14
sS'ispublic'
p2614
I1
sS'server'
p2615
V8049
p2616
sS'isfriend'
p2617
I0
sS'secret'
p2618
Vdb6283e57c
p2619
sg21
S'http://farm9.static.flickr.com/8049/8132227464_db6283e57c.jpg'
p2620
sS'owner'
p2621
V89180222@N05
p2622
sS'id'
p2623
V8132227464
p2624
sbag4
(g5
g6
NtRp2625
(dp2626
S'isfamily'
p2627
I0
sS'title'
p2628
VChug, Chug, Chug
p2629
sS'farm'
p2630
I1
sg13
g14
sS'ispublic'
p2631
I1
sS'server'
p2632
V33
p2633
sS'isfriend'
p2634
I0
sS'secret'
p2635
V99bef47006
p2636
sg21
S'http://farm1.static.flickr.com/33/56166949_99bef47006.jpg'
p2637
sS'owner'
p2638
V81693029@N00
p2639
sS'id'
p2640
V56166949
p2641
sbag4
(g5
g6
NtRp2642
(dp2643
S'isfamily'
p2644
I0
sS'title'
p2645
Vchug beer in the bathroom. we dont fuck around.
p2646
sS'farm'
p2647
I2
sg13
g14
sS'ispublic'
p2648
I1
sS'server'
p2649
V1219
p2650
sS'isfriend'
p2651
I0
sS'secret'
p2652
V07dd222bb6
p2653
sg21
S'http://farm2.static.flickr.com/1219/711166810_07dd222bb6.jpg'
p2654
sS'owner'
p2655
V35038408@N00
p2656
sS'id'
p2657
V711166810
p2658
sbag4
(g5
g6
NtRp2659
(dp2660
S'isfamily'
p2661
I0
sS'title'
p2662
VQingdao_1414
p2663
sS'farm'
p2664
I1
sg13
g14
sS'ispublic'
p2665
I1
sS'server'
p2666
V70
p2667
sS'isfriend'
p2668
I0
sS'secret'
p2669
V0f2e98fd96
p2670
sg21
S'http://farm1.static.flickr.com/70/214743930_0f2e98fd96.jpg'
p2671
sS'owner'
p2672
V93889412@N00
p2673
sS'id'
p2674
V214743930
p2675
sbag4
(g5
g6
NtRp2676
(dp2677
S'isfamily'
p2678
I0
sS'title'
p2679
Vwe used to have an old quarter horse, our family's first horse, red, who liked to chug beers at parties. his true favorite was bartle's and james wine coolers, though.
p2680
sS'farm'
p2681
I4
sg13
g14
sS'ispublic'
p2682
I1
sS'server'
p2683
V3625
p2684
sS'isfriend'
p2685
I0
sS'secret'
p2686
Vdb8e96563e
p2687
sg21
S'http://farm4.static.flickr.com/3625/3501399028_db8e96563e.jpg'
p2688
sS'owner'
p2689
V31725849@N08
p2690
sS'id'
p2691
V3501399028
p2692
sbag4
(g5
g6
NtRp2693
(dp2694
S'isfamily'
p2695
I0
sS'title'
p2696
VMelissa's Shower Game for the Guys
p2697
sS'farm'
p2698
I4
sg13
g14
sS'ispublic'
p2699
I1
sS'server'
p2700
V3063
p2701
sS'isfriend'
p2702
I0
sS'secret'
p2703
V0785be0bee
p2704
sg21
S'http://farm4.static.flickr.com/3063/3008818589_0785be0bee.jpg'
p2705
sS'owner'
p2706
V8685480@N07
p2707
sS'id'
p2708
V3008818589
p2709
sbag4
(g5
g6
NtRp2710
(dp2711
S'isfamily'
p2712
I0
sS'title'
p2713
V@drnickaccardi #chugging #beer in late nights @emporiumchicago. #party #craftbeer provided by @itsjustjared
p2714
sS'farm'
p2715
I9
sg13
g14
sS'ispublic'
p2716
I1
sS'server'
p2717
V8344
p2718
sS'isfriend'
p2719
I0
sS'secret'
p2720
V720063677f
p2721
sg21
S'http://farm9.static.flickr.com/8344/8194876035_720063677f.jpg'
p2722
sS'owner'
p2723
V35450240@N05
p2724
sS'id'
p2725
V8194876035
p2726
sbag4
(g5
g6
NtRp2727
(dp2728
S'isfamily'
p2729
I0
sS'title'
p2730
VTank
p2731
sS'farm'
p2732
I4
sg13
g14
sS'ispublic'
p2733
I1
sS'server'
p2734
V3439
p2735
sS'isfriend'
p2736
I0
sS'secret'
p2737
V92a8ff5a0b
p2738
sg21
S'http://farm4.static.flickr.com/3439/3361739862_92a8ff5a0b.jpg'
p2739
sS'owner'
p2740
V31708880@N08
p2741
sS'id'
p2742
V3361739862
p2743
sbag4
(g5
g6
NtRp2744
(dp2745
S'isfamily'
p2746
I0
sS'title'
p2747
VThe Boat Race
p2748
sS'farm'
p2749
I1
sg13
g14
sS'ispublic'
p2750
I1
sS'server'
p2751
V53
p2752
sS'isfriend'
p2753
I0
sS'secret'
p2754
V1317783bc9
p2755
sg21
S'http://farm1.static.flickr.com/53/146269637_1317783bc9.jpg'
p2756
sS'owner'
p2757
V90336565@N00
p2758
sS'id'
p2759
V146269637
p2760
sbag4
(g5
g6
NtRp2761
(dp2762
S'isfamily'
p2763
I0
sS'title'
p2764
VWe will allow your lack of costume if you chug beer, from a pitcher.
p2765
sS'farm'
p2766
I3
sg13
g14
sS'ispublic'
p2767
I1
sS'server'
p2768
V2139
p2769
sS'isfriend'
p2770
I0
sS'secret'
p2771
Vd3cd4057ed
p2772
sg21
S'http://farm3.static.flickr.com/2139/2116649023_d3cd4057ed.jpg'
p2773
sS'owner'
p2774
V99743154@N00
p2775
sS'id'
p2776
V2116649023
p2777
sbag4
(g5
g6
NtRp2778
(dp2779
S'isfamily'
p2780
I0
sS'title'
p2781
V
sS'farm'
p2782
I4
sg13
g14
sS'ispublic'
p2783
I1
sS'server'
p2784
V3149
p2785
sS'isfriend'
p2786
I0
sS'secret'
p2787
Vc69f483058
p2788
sg21
S'http://farm4.static.flickr.com/3149/5872122775_c69f483058.jpg'
p2789
sS'owner'
p2790
V28023222@N04
p2791
sS'id'
p2792
V5872122775
p2793
sbag4
(g5
g6
NtRp2794
(dp2795
S'isfamily'
p2796
I0
sS'title'
p2797
VHappy Campers
p2798
sS'farm'
p2799
I1
sg13
g14
sS'ispublic'
p2800
I1
sS'server'
p2801
V19
p2802
sS'isfriend'
p2803
I0
sS'secret'
p2804
Vf1df3363a7
p2805
sg21
S'http://farm1.static.flickr.com/19/121168420_f1df3363a7.jpg'
p2806
sS'owner'
p2807
V18739138@N00
p2808
sS'id'
p2809
V121168420
p2810
sbag4
(g5
g6
NtRp2811
(dp2812
S'isfamily'
p2813
I0
sS'title'
p2814
VA True Man's Man
p2815
sS'farm'
p2816
I1
sg13
g14
sS'ispublic'
p2817
I1
sS'server'
p2818
V53
p2819
sS'isfriend'
p2820
I0
sS'secret'
p2821
V364a972e2f
p2822
sg21
S'http://farm1.static.flickr.com/53/139961195_364a972e2f.jpg'
p2823
sS'owner'
p2824
V16337516@N00
p2825
sS'id'
p2826
V139961195
p2827
sbag4
(g5
g6
NtRp2828
(dp2829
S'isfamily'
p2830
I0
sS'title'
p2831
VClimb up to ...
p2832
sS'farm'
p2833
I4
sg13
g14
sS'ispublic'
p2834
I1
sS'server'
p2835
V3444
p2836
sS'isfriend'
p2837
I0
sS'secret'
p2838
V785d9c2397
p2839
sg21
S'http://farm4.static.flickr.com/3444/3738188172_785d9c2397.jpg'
p2840
sS'owner'
p2841
V31556268@N00
p2842
sS'id'
p2843
V3738188172
p2844
sbag4
(g5
g6
NtRp2845
(dp2846
S'isfamily'
p2847
I0
sS'title'
p2848
V
sS'farm'
p2849
I1
sg13
g14
sS'ispublic'
p2850
I1
sS'server'
p2851
V57
p2852
sS'isfriend'
p2853
I0
sS'secret'
p2854
V45d6300917
p2855
sg21
S'http://farm1.static.flickr.com/57/195099562_45d6300917.jpg'
p2856
sS'owner'
p2857
V53468245@N00
p2858
sS'id'
p2859
V195099562
p2860
sbag4
(g5
g6
NtRp2861
(dp2862
S'isfamily'
p2863
I0
sS'title'
p2864
VDay 6 - Riding the Disney Monorail
p2865
sS'farm'
p2866
I9
sg13
g14
sS'ispublic'
p2867
I1
sS'server'
p2868
V8300
p2869
sS'isfriend'
p2870
I0
sS'secret'
p2871
Ve6dab44d4d
p2872
sg21
S'http://farm9.static.flickr.com/8300/7973921730_e6dab44d4d.jpg'
p2873
sS'owner'
p2874
V12440183@N04
p2875
sS'id'
p2876
V7973921730
p2877
sbag4
(g5
g6
NtRp2878
(dp2879
S'isfamily'
p2880
I0
sS'title'
p2881
VIMG_1731.JPG
p2882
sS'farm'
p2883
I1
sg13
g14
sS'ispublic'
p2884
I1
sS'server'
p2885
V159
p2886
sS'isfriend'
p2887
I0
sS'secret'
p2888
Va2f3a8907b
p2889
sg21
S'http://farm1.static.flickr.com/159/417749259_a2f3a8907b.jpg'
p2890
sS'owner'
p2891
V39941675@N00
p2892
sS'id'
p2893
V417749259
p2894
sbag4
(g5
g6
NtRp2895
(dp2896
S'isfamily'
p2897
I0
sS'title'
p2898
VChugging beer while mom cleans up frilly top dunked in soy sauce
p2899
sS'farm'
p2900
I4
sg13
g14
sS'ispublic'
p2901
I1
sS'server'
p2902
V3601
p2903
sS'isfriend'
p2904
I0
sS'secret'
p2905
V4c8055dfd3
p2906
sg21
S'http://farm4.static.flickr.com/3601/3474895689_4c8055dfd3.jpg'
p2907
sS'owner'
p2908
V33852564@N02
p2909
sS'id'
p2910
V3474895689
p2911
sbag4
(g5
g6
NtRp2912
(dp2913
S'isfamily'
p2914
I0
sS'title'
p2915
VCIMG0050
p2916
sS'farm'
p2917
I1
sg13
g14
sS'ispublic'
p2918
I1
sS'server'
p2919
V16
p2920
sS'isfriend'
p2921
I0
sS'secret'
p2922
Va854c88e78
p2923
sg21
S'http://farm1.static.flickr.com/16/22013605_a854c88e78.jpg'
p2924
sS'owner'
p2925
V85104511@N00
p2926
sS'id'
p2927
V22013605
p2928
sbag4
(g5
g6
NtRp2929
(dp2930
S'isfamily'
p2931
I0
sS'title'
p2932
VBeer Run 1
p2933
sS'farm'
p2934
I1
sg13
g14
sS'ispublic'
p2935
I1
sS'server'
p2936
V15
p2937
sS'isfriend'
p2938
I0
sS'secret'
p2939
V6dd8211b9d
p2940
sg21
S'http://farm1.static.flickr.com/15/18951768_6dd8211b9d.jpg'
p2941
sS'owner'
p2942
V65508625@N00
p2943
sS'id'
p2944
V18951768
p2945
sbag4
(g5
g6
NtRp2946
(dp2947
S'isfamily'
p2948
I0
sS'title'
p2949
VDinner with Kenji's friends
p2950
sS'farm'
p2951
I3
sg13
g14
sS'ispublic'
p2952
I1
sS'server'
p2953
V2645
p2954
sS'isfriend'
p2955
I0
sS'secret'
p2956
V96d7c6dfee
p2957
sg21
S'http://farm3.static.flickr.com/2645/3964540596_96d7c6dfee.jpg'
p2958
sS'owner'
p2959
V19310408@N05
p2960
sS'id'
p2961
V3964540596
p2962
sbag4
(g5
g6
NtRp2963
(dp2964
S'isfamily'
p2965
I0
sS'title'
p2966
VAndrew WK Lecture
p2967
sS'farm'
p2968
I3
sg13
g14
sS'ispublic'
p2969
I1
sS'server'
p2970
V2369
p2971
sS'isfriend'
p2972
I0
sS'secret'
p2973
Vdf2c699453
p2974
sg21
S'http://farm3.static.flickr.com/2369/1928717796_df2c699453.jpg'
p2975
sS'owner'
p2976
V8897542@N04
p2977
sS'id'
p2978
V1928717796
p2979
sbag4
(g5
g6
NtRp2980
(dp2981
S'isfamily'
p2982
I0
sS'title'
p2983
VBaby games
p2984
sS'farm'
p2985
I4
sg13
g14
sS'ispublic'
p2986
I1
sS'server'
p2987
V3362
p2988
sS'isfriend'
p2989
I0
sS'secret'
p2990
V9b93343e41
p2991
sg21
S'http://farm4.static.flickr.com/3362/3514223344_9b93343e41.jpg'
p2992
sS'owner'
p2993
V9101950@N03
p2994
sS'id'
p2995
V3514223344
p2996
sbag4
(g5
g6
NtRp2997
(dp2998
S'isfamily'
p2999
I0
sS'title'
p3000
VOktoberfest in Salzburg!
p3001
sS'farm'
p3002
I2
sg13
g14
sS'ispublic'
p3003
I1
sS'server'
p3004
V1070
p3005
sS'isfriend'
p3006
I0
sS'secret'
p3007
V12591b253b
p3008
sg21
S'http://farm2.static.flickr.com/1070/1488104319_12591b253b.jpg'
p3009
sS'owner'
p3010
V86181827@N00
p3011
sS'id'
p3012
V1488104319
p3013
sbag4
(g5
g6
NtRp3014
(dp3015
S'isfamily'
p3016
I0
sS'title'
p3017
VDSCN0809.JPG
p3018
sS'farm'
p3019
I3
sg13
g14
sS'ispublic'
p3020
I1
sS'server'
p3021
V2171
p3022
sS'isfriend'
p3023
I0
sS'secret'
p3024
V12d84fd236
p3025
sg21
S'http://farm3.static.flickr.com/2171/2237066869_12d84fd236.jpg'
p3026
sS'owner'
p3027
V84848030@N00
p3028
sS'id'
p3029
V2237066869
p3030
sbag4
(g5
g6
NtRp3031
(dp3032
S'isfamily'
p3033
I0
sS'title'
p3034
VThe Bravery
p3035
sS'farm'
p3036
I1
sg13
g14
sS'ispublic'
p3037
I1
sS'server'
p3038
V22
p3039
sS'isfriend'
p3040
I0
sS'secret'
p3041
V540b5fb5c7
p3042
sg21
S'http://farm1.static.flickr.com/22/28664241_540b5fb5c7.jpg'
p3043
sS'owner'
p3044
V59859508@N00
p3045
sS'id'
p3046
V28664241
p3047
sbag4
(g5
g6
NtRp3048
(dp3049
S'isfamily'
p3050
I0
sS'title'
p3051
VGotta give props to a girl who can chug beer & dance at the same time!
p3052
sS'farm'
p3053
I7
sg13
g14
sS'ispublic'
p3054
I1
sS'server'
p3055
V6059
p3056
sS'isfriend'
p3057
I0
sS'secret'
p3058
V9010996c4a
p3059
sg21
S'http://farm7.static.flickr.com/6059/6363843853_9010996c4a.jpg'
p3060
sS'owner'
p3061
V64493559@N08
p3062
sS'id'
p3063
V6363843853
p3064
sbag4
(g5
g6
NtRp3065
(dp3066
S'isfamily'
p3067
I0
sS'title'
p3068
VWoodie 1
p3069
sS'farm'
p3070
I1
sg13
g14
sS'ispublic'
p3071
I1
sS'server'
p3072
V54
p3073
sS'isfriend'
p3074
I0
sS'secret'
p3075
V0d9c8ce68f
p3076
sg21
S'http://farm1.static.flickr.com/54/164156113_0d9c8ce68f.jpg'
p3077
sS'owner'
p3078
V64383324@N00
p3079
sS'id'
p3080
V164156113
p3081
sbag4
(g5
g6
NtRp3082
(dp3083
S'isfamily'
p3084
I0
sS'title'
p3085
VLady in Red
p3086
sS'farm'
p3087
I6
sg13
g14
sS'ispublic'
p3088
I1
sS'server'
p3089
V5291
p3090
sS'isfriend'
p3091
I0
sS'secret'
p3092
V85bcc76509
p3093
sg21
S'http://farm6.static.flickr.com/5291/5546618413_85bcc76509.jpg'
p3094
sS'owner'
p3095
V57694197@N06
p3096
sS'id'
p3097
V5546618413
p3098
sbag4
(g5
g6
NtRp3099
(dp3100
S'isfamily'
p3101
I0
sS'title'
p3102
VDSC01936
p3103
sS'farm'
p3104
I4
sg13
g14
sS'ispublic'
p3105
I1
sS'server'
p3106
V3052
p3107
sS'isfriend'
p3108
I0
sS'secret'
p3109
V8981d8fd14
p3110
sg21
S'http://farm4.static.flickr.com/3052/2809194738_8981d8fd14.jpg'
p3111
sS'owner'
p3112
V15123823@N07
p3113
sS'id'
p3114
V2809194738
p3115
sbag4
(g5
g6
NtRp3116
(dp3117
S'isfamily'
p3118
I0
sS'title'
p3119
VFan Celebration
p3120
sS'farm'
p3121
I4
sg13
g14
sS'ispublic'
p3122
I1
sS'server'
p3123
V3244
p3124
sS'isfriend'
p3125
I0
sS'secret'
p3126
Vbb014b832e
p3127
sg21
S'http://farm4.static.flickr.com/3244/2897580852_bb014b832e.jpg'
p3128
sS'owner'
p3129
V12911674@N05
p3130
sS'id'
p3131
V2897580852
p3132
sbag4
(g5
g6
NtRp3133
(dp3134
S'isfamily'
p3135
I0
sS'title'
p3136
V090405-3
p3137
sS'farm'
p3138
I1
sg13
g14
sS'ispublic'
p3139
I1
sS'server'
p3140
V64
p3141
sS'isfriend'
p3142
I0
sS'secret'
p3143
V8bb31a211f
p3144
sg21
S'http://farm1.static.flickr.com/64/214567688_8bb31a211f.jpg'
p3145
sS'owner'
p3146
V68574102@N00
p3147
sS'id'
p3148
V214567688
p3149
sbag4
(g5
g6
NtRp3150
(dp3151
S'isfamily'
p3152
I0
sS'title'
p3153
Vthis swedish kid is 12 years old.
p3154
sS'farm'
p3155
I1
sg13
g14
sS'ispublic'
p3156
I1
sS'server'
p3157
V136
p3158
sS'isfriend'
p3159
I0
sS'secret'
p3160
V44f121d5e0
p3161
sg21
S'http://farm1.static.flickr.com/136/391908508_44f121d5e0.jpg'
p3162
sS'owner'
p3163
V30959241@N00
p3164
sS'id'
p3165
V391908508
p3166
sbag4
(g5
g6
NtRp3167
(dp3168
S'isfamily'
p3169
I0
sS'title'
p3170
VNeed a glass?
p3171
sS'farm'
p3172
I1
sg13
g14
sS'ispublic'
p3173
I1
sS'server'
p3174
V183
p3175
sS'isfriend'
p3176
I0
sS'secret'
p3177
Vbfebba9b2d
p3178
sg21
S'http://farm1.static.flickr.com/183/434503169_bfebba9b2d.jpg'
p3179
sS'owner'
p3180
V52461495@N00
p3181
sS'id'
p3182
V434503169
p3183
sbag4
(g5
g6
NtRp3184
(dp3185
S'isfamily'
p3186
I0
sS'title'
p3187
VNurse_Your_Beer5
p3188
sS'farm'
p3189
I3
sg13
g14
sS'ispublic'
p3190
I1
sS'server'
p3191
V2119
p3192
sS'isfriend'
p3193
I0
sS'secret'
p3194
V0ff153cc6c
p3195
sg21
S'http://farm3.static.flickr.com/2119/2082184982_0ff153cc6c.jpg'
p3196
sS'owner'
p3197
V49117511@N00
p3198
sS'id'
p3199
V2082184982
p3200
sbag4
(g5
g6
NtRp3201
(dp3202
S'isfamily'
p3203
I0
sS'title'
p3204
VIMG_0981
p3205
sS'farm'
p3206
I1
sg13
g14
sS'ispublic'
p3207
I1
sS'server'
p3208
V10
p3209
sS'isfriend'
p3210
I0
sS'secret'
p3211
Vec6332800b
p3212
sg21
S'http://farm1.static.flickr.com/10/14337430_ec6332800b.jpg'
p3213
sS'owner'
p3214
V43578400@N00
p3215
sS'id'
p3216
V14337430
p3217
sbag4
(g5
g6
NtRp3218
(dp3219
S'isfamily'
p3220
I0
sS'title'
p3221
VYes, Memo n his water bong
p3222
sS'farm'
p3223
I4
sg13
g14
sS'ispublic'
p3224
I1
sS'server'
p3225
V3095
p3226
sS'isfriend'
p3227
I0
sS'secret'
p3228
V8042181575
p3229
sg21
S'http://farm4.static.flickr.com/3095/2564689574_8042181575.jpg'
p3230
sS'owner'
p3231
V26913659@N08
p3232
sS'id'
p3233
V2564689574
p3234
sbag4
(g5
g6
NtRp3235
(dp3236
S'isfamily'
p3237
I0
sS'title'
p3238
VA legend?
p3239
sS'farm'
p3240
I3
sg13
g14
sS'ispublic'
p3241
I1
sS'server'
p3242
V2064
p3243
sS'isfriend'
p3244
I0
sS'secret'
p3245
Ve7541d3946
p3246
sg21
S'http://farm3.static.flickr.com/2064/1747734289_e7541d3946.jpg'
p3247
sS'owner'
p3248
V10715328@N02
p3249
sS'id'
p3250
V1747734289
p3251
sbag4
(g5
g6
NtRp3252
(dp3253
S'isfamily'
p3254
I0
sS'title'
p3255
VAndrewSkate
p3256
sS'farm'
p3257
I2
sg13
g14
sS'ispublic'
p3258
I1
sS'server'
p3259
V1448
p3260
sS'isfriend'
p3261
I0
sS'secret'
p3262
V7b9266c3de
p3263
sg21
S'http://farm2.static.flickr.com/1448/26442773606_7b9266c3de.jpg'
p3264
sS'owner'
p3265
V97049273@N02
p3266
sS'id'
p3267
V26442773606
p3268
sbag4
(g5
g6
NtRp3269
(dp3270
S'isfamily'
p3271
I0
sS'title'
p3272
VDay 6 - Riding the Disney Monorail
p3273
sS'farm'
p3274
I9
sg13
g14
sS'ispublic'
p3275
I1
sS'server'
p3276
V8177
p3277
sS'isfriend'
p3278
I0
sS'secret'
p3279
V07ea5c01b6
p3280
sg21
S'http://farm9.static.flickr.com/8177/7973922992_07ea5c01b6.jpg'
p3281
sS'owner'
p3282
V12440183@N04
p3283
sS'id'
p3284
V7973922992
p3285
sbag4
(g5
g6
NtRp3286
(dp3287
S'isfamily'
p3288
I0
sS'title'
p3289
VFlux Capacitor
p3290
sS'farm'
p3291
I5
sg13
g14
sS'ispublic'
p3292
I1
sS'server'
p3293
V4036
p3294
sS'isfriend'
p3295
I0
sS'secret'
p3296
Ve0f684657c
p3297
sg21
S'http://farm5.static.flickr.com/4036/4562437135_e0f684657c.jpg'
p3298
sS'owner'
p3299
V49132200@N04
p3300
sS'id'
p3301
V4562437135
p3302
sbag4
(g5
g6
NtRp3303
(dp3304
S'isfamily'
p3305
I0
sS'title'
p3306
VBud heavies
p3307
sS'farm'
p3308
I2
sg13
g14
sS'ispublic'
p3309
I1
sS'server'
p3310
V1426
p3311
sS'isfriend'
p3312
I0
sS'secret'
p3313
V2594c5efaf
p3314
sg21
S'http://farm2.static.flickr.com/1426/1083785276_2594c5efaf.jpg'
p3315
sS'owner'
p3316
V62448653@N00
p3317
sS'id'
p3318
V1083785276
p3319
sbag4
(g5
g6
NtRp3320
(dp3321
S'isfamily'
p3322
I0
sS'title'
p3323
VPre-bar jams.
p3324
sS'farm'
p3325
I4
sg13
g14
sS'ispublic'
p3326
I1
sS'server'
p3327
V3407
p3328
sS'isfriend'
p3329
I0
sS'secret'
p3330
V1098326c01
p3331
sg21
S'http://farm4.static.flickr.com/3407/3436480578_1098326c01.jpg'
p3332
sS'owner'
p3333
V55115371@N00
p3334
sS'id'
p3335
V3436480578
p3336
sbag4
(g5
g6
NtRp3337
(dp3338
S'isfamily'
p3339
I0
sS'title'
p3340
V100_4867
p3341
sS'farm'
p3342
I1
sg13
g14
sS'ispublic'
p3343
I1
sS'server'
p3344
V53
p3345
sS'isfriend'
p3346
I0
sS'secret'
p3347
V19134de76e
p3348
sg21
S'http://farm1.static.flickr.com/53/125235134_19134de76e.jpg'
p3349
sS'owner'
p3350
V20383357@N00
p3351
sS'id'
p3352
V125235134
p3353
sbag4
(g5
g6
NtRp3354
(dp3355
S'isfamily'
p3356
I0
sS'title'
p3357
VRod and Evan
p3358
sS'farm'
p3359
I5
sg13
g14
sS'ispublic'
p3360
I1
sS'server'
p3361
V4016
p3362
sS'isfriend'
p3363
I0
sS'secret'
p3364
V96dd52f531
p3365
sg21
S'http://farm5.static.flickr.com/4016/4390387170_96dd52f531.jpg'
p3366
sS'owner'
p3367
V35387237@N00
p3368
sS'id'
p3369
V4390387170
p3370
sbag4
(g5
g6
NtRp3371
(dp3372
S'isfamily'
p3373
I0
sS'title'
p3374
VPICT7281.JPG
p3375
sS'farm'
p3376
I1
sg13
g14
sS'ispublic'
p3377
I1
sS'server'
p3378
V195
p3379
sS'isfriend'
p3380
I0
sS'secret'
p3381
V4f0c9d5a4d
p3382
sg21
S'http://farm1.static.flickr.com/195/498295543_4f0c9d5a4d.jpg'
p3383
sS'owner'
p3384
V14261584@N00
p3385
sS'id'
p3386
V498295543
p3387
sbag4
(g5
g6
NtRp3388
(dp3389
S'isfamily'
p3390
I0
sS'title'
p3391
Vrandomparty 026
p3392
sS'farm'
p3393
I4
sg13
g14
sS'ispublic'
p3394
I1
sS'server'
p3395
V3422
p3396
sS'isfriend'
p3397
I0
sS'secret'
p3398
Vdcd336c9da
p3399
sg21
S'http://farm4.static.flickr.com/3422/3869734540_dcd336c9da.jpg'
p3400
sS'owner'
p3401
V41959859@N05
p3402
sS'id'
p3403
V3869734540
p3404
sbag4
(g5
g6
NtRp3405
(dp3406
S'isfamily'
p3407
I0
sS'title'
p3408
VIMG_0456
p3409
sS'farm'
p3410
I3
sg13
g14
sS'ispublic'
p3411
I1
sS'server'
p3412
V2646
p3413
sS'isfriend'
p3414
I0
sS'secret'
p3415
Ve491dabd77
p3416
sg21
S'http://farm3.static.flickr.com/2646/3985467303_e491dabd77.jpg'
p3417
sS'owner'
p3418
V30143886@N08
p3419
sS'id'
p3420
V3985467303
p3421
sbag4
(g5
g6
NtRp3422
(dp3423
S'isfamily'
p3424
I0
sS'title'
p3425
VIMG_0352.JPG
p3426
sS'farm'
p3427
I2
sg13
g14
sS'ispublic'
p3428
I1
sS'server'
p3429
V1344
p3430
sS'isfriend'
p3431
I0
sS'secret'
p3432
Vc2152202fa
p3433
sg21
S'http://farm2.static.flickr.com/1344/1177028265_c2152202fa.jpg'
p3434
sS'owner'
p3435
V8099698@N02
p3436
sS'id'
p3437
V1177028265
p3438
sbag4
(g5
g6
NtRp3439
(dp3440
S'isfamily'
p3441
I0
sS'title'
p3442
VDSC01938
p3443
sS'farm'
p3444
I4
sg13
g14
sS'ispublic'
p3445
I1
sS'server'
p3446
V3144
p3447
sS'isfriend'
p3448
I0
sS'secret'
p3449
Ved338a3a6e
p3450
sg21
S'http://farm4.static.flickr.com/3144/2809195102_ed338a3a6e.jpg'
p3451
sS'owner'
p3452
V15123823@N07
p3453
sS'id'
p3454
V2809195102
p3455
sbag4
(g5
g6
NtRp3456
(dp3457
S'isfamily'
p3458
I0
sS'title'
p3459
VDay 4 - Driving
p3460
sS'farm'
p3461
I5
sg13
g14
sS'ispublic'
p3462
I1
sS'server'
p3463
V4095
p3464
sS'isfriend'
p3465
I0
sS'secret'
p3466
V11232b11a3
p3467
sg21
S'http://farm5.static.flickr.com/4095/4783523863_11232b11a3.jpg'
p3468
sS'owner'
p3469
V30304514@N00
p3470
sS'id'
p3471
V4783523863
p3472
sbag4
(g5
g6
NtRp3473
(dp3474
S'isfamily'
p3475
I0
sS'title'
p3476
VIMG_0503
p3477
sS'farm'
p3478
I4
sg13
g14
sS'ispublic'
p3479
I1
sS'server'
p3480
V3340
p3481
sS'isfriend'
p3482
I0
sS'secret'
p3483
Vde78934029
p3484
sg21
S'http://farm4.static.flickr.com/3340/3516148378_de78934029.jpg'
p3485
sS'owner'
p3486
V38227569@N02
p3487
sS'id'
p3488
V3516148378
p3489
sbag4
(g5
g6
NtRp3490
(dp3491
S'isfamily'
p3492
I0
sS'title'
p3493
VKurt
p3494
sS'farm'
p3495
I2
sg13
g14
sS'ispublic'
p3496
I1
sS'server'
p3497
V1060
p3498
sS'isfriend'
p3499
I0
sS'secret'
p3500
V34eaa70892
p3501
sg21
S'http://farm2.static.flickr.com/1060/756239223_34eaa70892.jpg'
p3502
sS'owner'
p3503
V9846739@N04
p3504
sS'id'
p3505
V756239223
p3506
sbag4
(g5
g6
NtRp3507
(dp3508
S'isfamily'
p3509
I0
sS'title'
p3510
Vmanlove.
p3511
sS'farm'
p3512
I5
sg13
g14
sS'ispublic'
p3513
I1
sS'server'
p3514
V4118
p3515
sS'isfriend'
p3516
I0
sS'secret'
p3517
V2823a47544
p3518
sg21
S'http://farm5.static.flickr.com/4118/4861229773_2823a47544.jpg'
p3519
sS'owner'
p3520
V51614406@N05
p3521
sS'id'
p3522
V4861229773
p3523
sbag4
(g5
g6
NtRp3524
(dp3525
S'isfamily'
p3526
I0
sS'title'
p3527
VDSC01656
p3528
sS'farm'
p3529
I1
sg13
g14
sS'ispublic'
p3530
I1
sS'server'
p3531
V118
p3532
sS'isfriend'
p3533
I0
sS'secret'
p3534
V808a0d345c
p3535
sg21
S'http://farm1.static.flickr.com/118/277219131_808a0d345c.jpg'
p3536
sS'owner'
p3537
V14261188@N00
p3538
sS'id'
p3539
V277219131
p3540
sbag4
(g5
g6
NtRp3541
(dp3542
S'isfamily'
p3543
I0
sS'title'
p3544
VIMG_3622
p3545
sS'farm'
p3546
I1
sg13
g14
sS'ispublic'
p3547
I1
sS'server'
p3548
V124
p3549
sS'isfriend'
p3550
I0
sS'secret'
p3551
Vbdaf92a806
p3552
sg21
S'http://farm1.static.flickr.com/124/358078007_bdaf92a806.jpg'
p3553
sS'owner'
p3554
V83615952@N00
p3555
sS'id'
p3556
V358078007
p3557
sbag4
(g5
g6
NtRp3558
(dp3559
S'isfamily'
p3560
I0
sS'title'
p3561
VBoat Racing
p3562
sS'farm'
p3563
I3
sg13
g14
sS'ispublic'
p3564
I1
sS'server'
p3565
V2419
p3566
sS'isfriend'
p3567
I0
sS'secret'
p3568
Vdcb43b9ee1
p3569
sg21
S'http://farm3.static.flickr.com/2419/2261325054_dcb43b9ee1.jpg'
p3570
sS'owner'
p3571
V7588870@N02
p3572
sS'id'
p3573
V2261325054
p3574
sbag4
(g5
g6
NtRp3575
(dp3576
S'isfamily'
p3577
I0
sS'title'
p3578
VSo many utilitie stores every block away with an outdoor seating where you could just sit and chug beer! These stores have everything u need! From tiny to big! Sucha prominent thing in #Seoul #south #korea #Seoul #couples #love #affection #mushy #art #ske
p3579
sS'farm'
p3580
I8
sg13
g14
sS'ispublic'
p3581
I1
sS'server'
p3582
V7710
p3583
sS'isfriend'
p3584
I0
sS'secret'
p3585
Vedc10a22eb
p3586
sg21
S'http://farm8.static.flickr.com/7710/17862514838_edc10a22eb.jpg'
p3587
sS'owner'
p3588
V21096915@N08
p3589
sS'id'
p3590
V17862514838
p3591
sbag4
(g5
g6
NtRp3592
(dp3593
S'isfamily'
p3594
I0
sS'title'
p3595
VLKF Party Zone
p3596
sS'farm'
p3597
I1
sg13
g14
sS'ispublic'
p3598
I1
sS'server'
p3599
V482
p3600
sS'isfriend'
p3601
I0
sS'secret'
p3602
V01069d56e7
p3603
sg21
S'http://farm1.static.flickr.com/482/19658787252_01069d56e7.jpg'
p3604
sS'owner'
p3605
V134047111@N08
p3606
sS'id'
p3607
V19658787252
p3608
sbag4
(g5
g6
NtRp3609
(dp3610
S'isfamily'
p3611
I0
sS'title'
p3612
Vby @siddharthsinghsid #Connaught_place #NewDelhi #Delhi\U0001f307#Summer\U0001f31e#Chug\U0001f37a
p3613
sS'farm'
p3614
I8
sg13
g14
sS'ispublic'
p3615
I1
sS'server'
p3616
V7222
p3617
sS'isfriend'
p3618
I0
sS'secret'
p3619
V75b9f8f9a4
p3620
sg21
S'http://farm8.static.flickr.com/7222/27101330075_75b9f8f9a4.jpg'
p3621
sS'owner'
p3622
V132652966@N06
p3623
sS'id'
p3624
V27101330075
p3625
sbag4
(g5
g6
NtRp3626
(dp3627
S'isfamily'
p3628
I0
sS'title'
p3629
VPhoto
p3630
sS'farm'
p3631
I6
sg13
g14
sS'ispublic'
p3632
I1
sS'server'
p3633
V5698
p3634
sS'isfriend'
p3635
I0
sS'secret'
p3636
V9eda6799c3
p3637
sg21
S'http://farm6.static.flickr.com/5698/20896255152_9eda6799c3.jpg'
p3638
sS'owner'
p3639
V132267538@N06
p3640
sS'id'
p3641
V20896255152
p3642
sbag4
(g5
g6
NtRp3643
(dp3644
S'isfamily'
p3645
I0
sS'title'
p3646
V"I am not 'chugging beer.' I'm sampling a flight of gluten-free German lagers with a French wine pairing. It's called a 'smorgasvein' and it's elegantly cultural!" --Trey Parker, _South Park_, season 18 episode 6, "Freemium Isn't Free" (November 5, 2014),
p3647
sS'farm'
p3648
I1
sg13
g14
sS'ispublic'
p3649
I1
sS'server'
p3650
V293
p3651
sS'isfriend'
p3652
I0
sS'secret'
p3653
V6e7d57cb82
p3654
sg21
S'http://farm1.static.flickr.com/293/19104775986_6e7d57cb82.jpg'
p3655
sS'owner'
p3656
V47327870@N00
p3657
sS'id'
p3658
V19104775986
p3659
sbag4
(g5
g6
NtRp3660
(dp3661
S'isfamily'
p3662
I0
sS'title'
p3663
VEating big bird (ostrich) and chugging beer with the locals
p3664
sS'farm'
p3665
I1
sg13
g14
sS'ispublic'
p3666
I1
sS'server'
p3667
V430
p3668
sS'isfriend'
p3669
I0
sS'secret'
p3670
Vafcf152742
p3671
sg21
S'http://farm1.static.flickr.com/430/18866118316_afcf152742.jpg'
p3672
sS'owner'
p3673
V123719311@N08
p3674
sS'id'
p3675
V18866118316
p3676
sbag4
(g5
g6
NtRp3677
(dp3678
S'isfamily'
p3679
I0
sS'title'
p3680
VYou believe this guy!? Chugging beers and whatnot.
p3681
sS'farm'
p3682
I6
sg13
g14
sS'ispublic'
p3683
I1
sS'server'
p3684
V5328
p3685
sS'isfriend'
p3686
I0
sS'secret'
p3687
V759b60f19f
p3688
sg21
S'http://farm6.static.flickr.com/5328/17916148425_759b60f19f.jpg'
p3689
sS'owner'
p3690
V115445318@N08
p3691
sS'id'
p3692
V17916148425
p3693
sbag4
(g5
g6
NtRp3694
(dp3695
S'isfamily'
p3696
I0
sS'title'
p3697
VHere's a few of my best friends/idiots I went to high school with chugging beers with no hands.   #plaidalcoholics
p3698
sS'farm'
p3699
I8
sg13
g14
sS'ispublic'
p3700
I1
sS'server'
p3701
V7601
p3702
sS'isfriend'
p3703
I0
sS'secret'
p3704
V66f2783d06
p3705
sg21
S'http://farm8.static.flickr.com/7601/17230915991_66f2783d06.jpg'
p3706
sS'owner'
p3707
V27558880@N04
p3708
sS'id'
p3709
V17230915991
p3710
sbag4
(g5
g6
NtRp3711
(dp3712
S'isfamily'
p3713
I0
sS'title'
p3714
VNothing says, "I hate Mondays" like surreptitiously chugging beers during the morning commute.  #Really #SMH
p3715
sS'farm'
p3716
I9
sg13
g14
sS'ispublic'
p3717
I1
sS'server'
p3718
V8686
p3719
sS'isfriend'
p3720
I0
sS'secret'
p3721
V5253ebf9db
p3722
sg21
S'http://farm9.static.flickr.com/8686/16698373787_5253ebf9db.jpg'
p3723
sS'owner'
p3724
V129689448@N03
p3725
sS'id'
p3726
V16698373787
p3727
sbag4
(g5
g6
NtRp3728
(dp3729
S'isfamily'
p3730
I0
sS'title'
p3731
VPatriots Parade13
p3732
sS'farm'
p3733
I8
sg13
g14
sS'ispublic'
p3734
I1
sS'server'
p3735
V7388
p3736
sS'isfriend'
p3737
I0
sS'secret'
p3738
Vc75534e4e4
p3739
sg21
S'http://farm8.static.flickr.com/7388/16293929517_c75534e4e4.jpg'
p3740
sS'owner'
p3741
V131309178@N08
p3742
sS'id'
p3743
V16293929517
p3744
sbag4
(g5
g6
NtRp3745
(dp3746
S'isfamily'
p3747
I0
sS'title'
p3748
VFlabongo instructions; 1. Pour beer into hole of belly 2. Chug beer from Bird's mouth
p3749
sS'farm'
p3750
I3
sg13
g14
sS'ispublic'
p3751
I1
sS'server'
p3752
V2917
p3753
sS'isfriend'
p3754
I0
sS'secret'
p3755
V0b453e16cb
p3756
sg21
S'http://farm3.static.flickr.com/2917/14541982239_0b453e16cb.jpg'
p3757
sS'owner'
p3758
V56419595@N00
p3759
sS'id'
p3760
V14541982239
p3761
sbag4
(g5
g6
NtRp3762
(dp3763
S'isfamily'
p3764
I0
sS'title'
p3765
VChugging beer on the tight rope
p3766
sS'farm'
p3767
I9
sg13
g14
sS'ispublic'
p3768
I1
sS'server'
p3769
V8390
p3770
sS'isfriend'
p3771
I0
sS'secret'
p3772
V0d1219aaaf
p3773
sg21
S'http://farm9.static.flickr.com/8390/8639318195_0d1219aaaf.jpg'
p3774
sS'owner'
p3775
V21576477@N04
p3776
sS'id'
p3777
V8639318195
p3778
sbag4
(g5
g6
NtRp3779
(dp3780
S'isfamily'
p3781
I0
sS'title'
p3782
VMy new Chug!! #beer #chug #manscup
p3783
sS'farm'
p3784
I8
sg13
g14
sS'ispublic'
p3785
I1
sS'server'
p3786
V7132
p3787
sS'isfriend'
p3788
I0
sS'secret'
p3789
V63bf3b7b15
p3790
sg21
S'http://farm8.static.flickr.com/7132/8156311515_63bf3b7b15.jpg'
p3791
sS'owner'
p3792
V59702120@N06
p3793
sS'id'
p3794
V8156311515
p3795
sbag4
(g5
g6
NtRp3796
(dp3797
S'isfamily'
p3798
I0
sS'title'
p3799
VDSC_0046
p3800
sS'farm'
p3801
I9
sg13
g14
sS'ispublic'
p3802
I1
sS'server'
p3803
V8472
p3804
sS'isfriend'
p3805
I0
sS'secret'
p3806
V8e0875ff0c
p3807
sg21
S'http://farm9.static.flickr.com/8472/8148988141_8e0875ff0c.jpg'
p3808
sS'owner'
p3809
V68137923@N06
p3810
sS'id'
p3811
V8148988141
p3812
sbag4
(g5
g6
NtRp3813
(dp3814
S'isfamily'
p3815
I0
sS'title'
p3816
VChugging Beer from a ski Boot
p3817
sS'farm'
p3818
I3
sg13
g14
sS'ispublic'
p3819
I1
sS'server'
p3820
V2541
p3821
sS'isfriend'
p3822
I0
sS'secret'
p3823
Vd6fb7a2375
p3824
sg21
S'http://farm3.static.flickr.com/2541/5841428569_d6fb7a2375.jpg'
p3825
sS'owner'
p3826
V63596567@N00
p3827
sS'id'
p3828
V5841428569
p3829
sbag4
(g5
g6
NtRp3830
(dp3831
S'isfamily'
p3832
I0
sS'title'
p3833
VKate drinks juice boxes in one gulp. This will be an asset to her some day when she's chugging beer in college.
p3834
sS'farm'
p3835
I4
sg13
g14
sS'ispublic'
p3836
I1
sS'server'
p3837
V3471
p3838
sS'isfriend'
p3839
I0
sS'secret'
p3840
Vd4c9d33b04
p3841
sg21
S'http://farm4.static.flickr.com/3471/3294498692_d4c9d33b04.jpg'
p3842
sS'owner'
p3843
V54284223@N00
p3844
sS'id'
p3845
V3294498692
p3846
sbag4
(g5
g6
NtRp3847
(dp3848
S'isfamily'
p3849
I0
sS'title'
p3850
VChugging beer is fun...
p3851
sS'farm'
p3852
I3
sg13
g14
sS'ispublic'
p3853
I1
sS'server'
p3854
V2006
p3855
sS'isfriend'
p3856
I0
sS'secret'
p3857
V1c6395519c
p3858
sg21
S'http://farm3.static.flickr.com/2006/2542163085_1c6395519c.jpg'
p3859
sS'owner'
p3860
V8988132@N07
p3861
sS'id'
p3862
V2542163085
p3863
sbag4
(g5
g6
NtRp3864
(dp3865
S'isfamily'
p3866
I0
sS'title'
p3867
VCentral Police Univ. cadet chugging beer
p3868
sS'farm'
p3869
I1
sg13
g14
sS'ispublic'
p3870
I1
sS'server'
p3871
V181
p3872
sS'isfriend'
p3873
I0
sS'secret'
p3874
V287d7b69f9
p3875
sg21
S'http://farm1.static.flickr.com/181/433273468_287d7b69f9.jpg'
p3876
sS'owner'
p3877
V7483808@N07
p3878
sS'id'
p3879
V433273468
p3880
sbag4
(g5
g6
NtRp3881
(dp3882
S'isfamily'
p3883
I0
sS'title'
p3884
VIMG_2971
p3885
sS'farm'
p3886
I1
sg13
g14
sS'ispublic'
p3887
I1
sS'server'
p3888
V132
p3889
sS'isfriend'
p3890
I0
sS'secret'
p3891
Veed0f5b4f4
p3892
sg21
S'http://farm1.static.flickr.com/132/349507170_eed0f5b4f4.jpg'
p3893
sS'owner'
p3894
V25737082@N00
p3895
sS'id'
p3896
V349507170
p3897
sbas.