(dp1
S'shotgun+beer'
p2
(lp3
ccopy_reg
_reconstructor
p4
(cmmfeat.miner.flickr
FlickrResult
p5
c__builtin__
object
p6
NtRp7
(dp8
S'isfamily'
p9
I0
sS'title'
p10
Vshotgun beers
p11
sS'farm'
p12
I4
sS'format'
p13
S'image/jpg'
p14
sS'ispublic'
p15
I1
sS'server'
p16
V3522
p17
sS'isfriend'
p18
I0
sS'secret'
p19
V8e7eaa665f
p20
sS'url'
p21
S'http://farm4.static.flickr.com/3522/3313711819_8e7eaa665f.jpg'
p22
sS'owner'
p23
V70433719@N00
p24
sS'id'
p25
V3313711819
p26
sbag4
(g5
g6
NtRp27
(dp28
S'isfamily'
p29
I0
sS'title'
p30
VBlurry shotgun
p31
sS'farm'
p32
I4
sg13
g14
sS'ispublic'
p33
I1
sS'server'
p34
V3477
p35
sS'isfriend'
p36
I0
sS'secret'
p37
Vc738c45973
p38
sg21
S'http://farm4.static.flickr.com/3477/3772426530_c738c45973.jpg'
p39
sS'owner'
p40
V13143394@N06
p41
sS'id'
p42
V3772426530
p43
sbag4
(g5
g6
NtRp44
(dp45
S'isfamily'
p46
I0
sS'title'
p47
VMark only shotguns beers
p48
sS'farm'
p49
I4
sg13
g14
sS'ispublic'
p50
I1
sS'server'
p51
V3350
p52
sS'isfriend'
p53
I0
sS'secret'
p54
V55646b041a
p55
sg21
S'http://farm4.static.flickr.com/3350/3287599349_55646b041a.jpg'
p56
sS'owner'
p57
V15413757@N00
p58
sS'id'
p59
V3287599349
p60
sbag4
(g5
g6
NtRp61
(dp62
S'isfamily'
p63
I0
sS'title'
p64
VUnemployment Celebration- Shotgun Beer
p65
sS'farm'
p66
I3
sg13
g14
sS'ispublic'
p67
I1
sS'server'
p68
V2554
p69
sS'isfriend'
p70
I0
sS'secret'
p71
Vdbf9264965
p72
sg21
S'http://farm3.static.flickr.com/2554/3902690371_dbf9264965.jpg'
p73
sS'owner'
p74
V36541072@N06
p75
sS'id'
p76
V3902690371
p77
sbag4
(g5
g6
NtRp78
(dp79
S'isfamily'
p80
I0
sS'title'
p81
VMark only shotguns beers
p82
sS'farm'
p83
I4
sg13
g14
sS'ispublic'
p84
I1
sS'server'
p85
V3288
p86
sS'isfriend'
p87
I0
sS'secret'
p88
V5acb00f71b
p89
sg21
S'http://farm4.static.flickr.com/3288/3287599921_5acb00f71b.jpg'
p90
sS'owner'
p91
V15413757@N00
p92
sS'id'
p93
V3287599921
p94
sbag4
(g5
g6
NtRp95
(dp96
S'isfamily'
p97
I0
sS'title'
p98
V4th of July
p99
sS'farm'
p100
I9
sg13
g14
sS'ispublic'
p101
I1
sS'server'
p102
V8460
p103
sS'isfriend'
p104
I0
sS'secret'
p105
Vf2af6b12a5
p106
sg21
S'http://farm9.static.flickr.com/8460/7890685862_f2af6b12a5.jpg'
p107
sS'owner'
p108
V48976808@N05
p109
sS'id'
p110
V7890685862
p111
sbag4
(g5
g6
NtRp112
(dp113
S'isfamily'
p114
I0
sS'title'
p115
VUnemployment Celebration- Shotgun Beer
p116
sS'farm'
p117
I3
sg13
g14
sS'ispublic'
p118
I1
sS'server'
p119
V2452
p120
sS'isfriend'
p121
I0
sS'secret'
p122
V84e9e35db7
p123
sg21
S'http://farm3.static.flickr.com/2452/3902689219_84e9e35db7.jpg'
p124
sS'owner'
p125
V36541072@N06
p126
sS'id'
p127
V3902689219
p128
sbag4
(g5
g6
NtRp129
(dp130
S'isfamily'
p131
I0
sS'title'
p132
VShotgun!
p133
sS'farm'
p134
I9
sg13
g14
sS'ispublic'
p135
I1
sS'server'
p136
V8156
p137
sS'isfriend'
p138
I0
sS'secret'
p139
V88d04cc31d
p140
sg21
S'http://farm9.static.flickr.com/8156/7296134810_88d04cc31d.jpg'
p141
sS'owner'
p142
V45797823@N03
p143
sS'id'
p144
V7296134810
p145
sbag4
(g5
g6
NtRp146
(dp147
S'isfamily'
p148
I0
sS'title'
p149
VUnemployment Celebration- Shotgun Beer
p150
sS'farm'
p151
I3
sg13
g14
sS'ispublic'
p152
I1
sS'server'
p153
V2671
p154
sS'isfriend'
p155
I0
sS'secret'
p156
V4a789b6b8f
p157
sg21
S'http://farm3.static.flickr.com/2671/3903467928_4a789b6b8f.jpg'
p158
sS'owner'
p159
V36541072@N06
p160
sS'id'
p161
V3903467928
p162
sbag4
(g5
g6
NtRp163
(dp164
S'isfamily'
p165
I0
sS'title'
p166
VShotgun
p167
sS'farm'
p168
I4
sg13
g14
sS'ispublic'
p169
I1
sS'server'
p170
V3111
p171
sS'isfriend'
p172
I0
sS'secret'
p173
V6f549e334d
p174
sg21
S'http://farm4.static.flickr.com/3111/2657364188_6f549e334d.jpg'
p175
sS'owner'
p176
V95724627@N00
p177
sS'id'
p178
V2657364188
p179
sbag4
(g5
g6
NtRp180
(dp181
S'isfamily'
p182
I0
sS'title'
p183
VShotgun!
p184
sS'farm'
p185
I2
sg13
g14
sS'ispublic'
p186
I1
sS'server'
p187
V1009
p188
sS'isfriend'
p189
I0
sS'secret'
p190
Vf4f3b5c464
p191
sg21
S'http://farm2.static.flickr.com/1009/845751365_f4f3b5c464.jpg'
p192
sS'owner'
p193
V10197377@N05
p194
sS'id'
p195
V845751365
p196
sbag4
(g5
g6
NtRp197
(dp198
S'isfamily'
p199
I0
sS'title'
p200
VMardi Gras etiquette rule 24:
p201
sS'farm'
p202
I3
sg13
g14
sS'ispublic'
p203
I1
sS'server'
p204
V2210
p205
sS'isfriend'
p206
I0
sS'secret'
p207
V3cdd03ff00
p208
sg21
S'http://farm3.static.flickr.com/2210/2225321496_3cdd03ff00.jpg'
p209
sS'owner'
p210
V44038067@N00
p211
sS'id'
p212
V2225321496
p213
sbag4
(g5
g6
NtRp214
(dp215
S'isfamily'
p216
I0
sS'title'
p217
V
sS'farm'
p218
I3
sg13
g14
sS'ispublic'
p219
I1
sS'server'
p220
V2830
p221
sS'isfriend'
p222
I0
sS'secret'
p223
V88960d2a0e
p224
sg21
S'http://farm3.static.flickr.com/2830/33280652154_88960d2a0e.jpg'
p225
sS'owner'
p226
V131416779@N06
p227
sS'id'
p228
V33280652154
p229
sbag4
(g5
g6
NtRp230
(dp231
S'isfamily'
p232
I0
sS'title'
p233
V84910022
p234
sS'farm'
p235
I6
sg13
g14
sS'ispublic'
p236
I1
sS'server'
p237
V5746
p238
sS'isfriend'
p239
I0
sS'secret'
p240
V74c8850084
p241
sg21
S'http://farm6.static.flickr.com/5746/30274523376_74c8850084.jpg'
p242
sS'owner'
p243
V67797459@N05
p244
sS'id'
p245
V30274523376
p246
sbag4
(g5
g6
NtRp247
(dp248
S'isfamily'
p249
I0
sS'title'
p250
V84910021
p251
sS'farm'
p252
I9
sg13
g14
sS'ispublic'
p253
I1
sS'server'
p254
V8650
p255
sS'isfriend'
p256
I0
sS'secret'
p257
V546d782813
p258
sg21
S'http://farm9.static.flickr.com/8650/30309504145_546d782813.jpg'
p259
sS'owner'
p260
V67797459@N05
p261
sS'id'
p262
V30309504145
p263
sbag4
(g5
g6
NtRp264
(dp265
S'isfamily'
p266
I0
sS'title'
p267
V84910017
p268
sS'farm'
p269
I9
sg13
g14
sS'ispublic'
p270
I1
sS'server'
p271
V8276
p272
sS'isfriend'
p273
I0
sS'secret'
p274
Vc58929eab9
p275
sg21
S'http://farm9.static.flickr.com/8276/30309504045_c58929eab9.jpg'
p276
sS'owner'
p277
V67797459@N05
p278
sS'id'
p279
V30309504045
p280
sbag4
(g5
g6
NtRp281
(dp282
S'isfamily'
p283
I0
sS'title'
p284
V84910020
p285
sS'farm'
p286
I9
sg13
g14
sS'ispublic'
p287
I1
sS'server'
p288
V8551
p289
sS'isfriend'
p290
I0
sS'secret'
p291
Vf9025ee0c2
p292
sg21
S'http://farm9.static.flickr.com/8551/30274522976_f9025ee0c2.jpg'
p293
sS'owner'
p294
V67797459@N05
p295
sS'id'
p296
V30274522976
p297
sbag4
(g5
g6
NtRp298
(dp299
S'isfamily'
p300
I0
sS'title'
p301
V84910016
p302
sS'farm'
p303
I6
sg13
g14
sS'ispublic'
p304
I1
sS'server'
p305
V5453
p306
sS'isfriend'
p307
I0
sS'secret'
p308
Ve044064590
p309
sg21
S'http://farm6.static.flickr.com/5453/30274522356_e044064590.jpg'
p310
sS'owner'
p311
V67797459@N05
p312
sS'id'
p313
V30274522356
p314
sbag4
(g5
g6
NtRp315
(dp316
S'isfamily'
p317
I0
sS'title'
p318
V84910013
p319
sS'farm'
p320
I6
sg13
g14
sS'ispublic'
p321
I1
sS'server'
p322
V5664
p323
sS'isfriend'
p324
I0
sS'secret'
p325
Vf5c49982b3
p326
sg21
S'http://farm6.static.flickr.com/5664/30274522056_f5c49982b3.jpg'
p327
sS'owner'
p328
V67797459@N05
p329
sS'id'
p330
V30274522056
p331
sbag4
(g5
g6
NtRp332
(dp333
S'isfamily'
p334
I0
sS'title'
p335
V84910002
p336
sS'farm'
p337
I6
sg13
g14
sS'ispublic'
p338
I1
sS'server'
p339
V5725
p340
sS'isfriend'
p341
I0
sS'secret'
p342
V6f54ff4f24
p343
sg21
S'http://farm6.static.flickr.com/5725/30274520446_6f54ff4f24.jpg'
p344
sS'owner'
p345
V67797459@N05
p346
sS'id'
p347
V30274520446
p348
sbag4
(g5
g6
NtRp349
(dp350
S'isfamily'
p351
I0
sS'title'
p352
V84910018
p353
sS'farm'
p354
I9
sg13
g14
sS'ispublic'
p355
I1
sS'server'
p356
V8140
p357
sS'isfriend'
p358
I0
sS'secret'
p359
V637e11f02f
p360
sg21
S'http://farm9.static.flickr.com/8140/30274522586_637e11f02f.jpg'
p361
sS'owner'
p362
V67797459@N05
p363
sS'id'
p364
V30274522586
p365
sbag4
(g5
g6
NtRp366
(dp367
S'isfamily'
p368
I0
sS'title'
p369
V84910008
p370
sS'farm'
p371
I9
sg13
g14
sS'ispublic'
p372
I1
sS'server'
p373
V8552
p374
sS'isfriend'
p375
I0
sS'secret'
p376
Vc8597eb81e
p377
sg21
S'http://farm9.static.flickr.com/8552/30274521556_c8597eb81e.jpg'
p378
sS'owner'
p379
V67797459@N05
p380
sS'id'
p381
V30274521556
p382
sbag4
(g5
g6
NtRp383
(dp384
S'isfamily'
p385
I0
sS'title'
p386
V84910005
p387
sS'farm'
p388
I6
sg13
g14
sS'ispublic'
p389
I1
sS'server'
p390
V5719
p391
sS'isfriend'
p392
I0
sS'secret'
p393
V6f5ca61529
p394
sg21
S'http://farm6.static.flickr.com/5719/30274521046_6f5ca61529.jpg'
p395
sS'owner'
p396
V67797459@N05
p397
sS'id'
p398
V30274521046
p399
sbag4
(g5
g6
NtRp400
(dp401
S'isfamily'
p402
I0
sS'title'
p403
V84910001
p404
sS'farm'
p405
I6
sg13
g14
sS'ispublic'
p406
I1
sS'server'
p407
V5661
p408
sS'isfriend'
p409
I0
sS'secret'
p410
Vd8232c5c00
p411
sg21
S'http://farm6.static.flickr.com/5661/30274520696_d8232c5c00.jpg'
p412
sS'owner'
p413
V67797459@N05
p414
sS'id'
p415
V30274520696
p416
sbag4
(g5
g6
NtRp417
(dp418
S'isfamily'
p419
I0
sS'title'
p420
V84920012
p421
sS'farm'
p422
I6
sg13
g14
sS'ispublic'
p423
I1
sS'server'
p424
V5476
p425
sS'isfriend'
p426
I0
sS'secret'
p427
V9cc4027df3
p428
sg21
S'http://farm6.static.flickr.com/5476/30274520286_9cc4027df3.jpg'
p429
sS'owner'
p430
V67797459@N05
p431
sS'id'
p432
V30274520286
p433
sbag4
(g5
g6
NtRp434
(dp435
S'isfamily'
p436
I0
sS'title'
p437
V84920007
p438
sS'farm'
p439
I6
sg13
g14
sS'ispublic'
p440
I1
sS'server'
p441
V5801
p442
sS'isfriend'
p443
I0
sS'secret'
p444
V4cdd4c7881
p445
sg21
S'http://farm6.static.flickr.com/5801/30274519586_4cdd4c7881.jpg'
p446
sS'owner'
p447
V67797459@N05
p448
sS'id'
p449
V30274519586
p450
sbag4
(g5
g6
NtRp451
(dp452
S'isfamily'
p453
I0
sS'title'
p454
V84920013
p455
sS'farm'
p456
I8
sg13
g14
sS'ispublic'
p457
I1
sS'server'
p458
V7538
p459
sS'isfriend'
p460
I0
sS'secret'
p461
Vfc3b00973b
p462
sg21
S'http://farm8.static.flickr.com/7538/30274517586_fc3b00973b.jpg'
p463
sS'owner'
p464
V67797459@N05
p465
sS'id'
p466
V30274517586
p467
sbag4
(g5
g6
NtRp468
(dp469
S'isfamily'
p470
I0
sS'title'
p471
V84910012
p472
sS'farm'
p473
I6
sg13
g14
sS'ispublic'
p474
I1
sS'server'
p475
V5836
p476
sS'isfriend'
p477
I0
sS'secret'
p478
V60af9cbc56
p479
sg21
S'http://farm6.static.flickr.com/5836/30309503375_60af9cbc56.jpg'
p480
sS'owner'
p481
V67797459@N05
p482
sS'id'
p483
V30309503375
p484
sbag4
(g5
g6
NtRp485
(dp486
S'isfamily'
p487
I0
sS'title'
p488
V84910007
p489
sS'farm'
p490
I9
sg13
g14
sS'ispublic'
p491
I1
sS'server'
p492
V8275
p493
sS'isfriend'
p494
I0
sS'secret'
p495
V0351731e4c
p496
sg21
S'http://farm9.static.flickr.com/8275/30274521336_0351731e4c.jpg'
p497
sS'owner'
p498
V67797459@N05
p499
sS'id'
p500
V30274521336
p501
sbag4
(g5
g6
NtRp502
(dp503
S'isfamily'
p504
I0
sS'title'
p505
V84910004
p506
sS'farm'
p507
I8
sg13
g14
sS'ispublic'
p508
I1
sS'server'
p509
V7531
p510
sS'isfriend'
p511
I0
sS'secret'
p512
V405d46dcf4
p513
sg21
S'http://farm8.static.flickr.com/7531/30274521076_405d46dcf4.jpg'
p514
sS'owner'
p515
V67797459@N05
p516
sS'id'
p517
V30274521076
p518
sbag4
(g5
g6
NtRp519
(dp520
S'isfamily'
p521
I0
sS'title'
p522
V84920008
p523
sS'farm'
p524
I6
sg13
g14
sS'ispublic'
p525
I1
sS'server'
p526
V5455
p527
sS'isfriend'
p528
I0
sS'secret'
p529
V5e2432fe84
p530
sg21
S'http://farm6.static.flickr.com/5455/30274519996_5e2432fe84.jpg'
p531
sS'owner'
p532
V67797459@N05
p533
sS'id'
p534
V30274519996
p535
sbag4
(g5
g6
NtRp536
(dp537
S'isfamily'
p538
I0
sS'title'
p539
V84920009
p540
sS'farm'
p541
I8
sg13
g14
sS'ispublic'
p542
I1
sS'server'
p543
V7472
p544
sS'isfriend'
p545
I0
sS'secret'
p546
V228e3a0110
p547
sg21
S'http://farm8.static.flickr.com/7472/30309501925_228e3a0110.jpg'
p548
sS'owner'
p549
V67797459@N05
p550
sS'id'
p551
V30309501925
p552
sbag4
(g5
g6
NtRp553
(dp554
S'isfamily'
p555
I0
sS'title'
p556
V84920006
p557
sS'farm'
p558
I9
sg13
g14
sS'ispublic'
p559
I1
sS'server'
p560
V8550
p561
sS'isfriend'
p562
I0
sS'secret'
p563
V16cb1d3b6a
p564
sg21
S'http://farm9.static.flickr.com/8550/30309501655_16cb1d3b6a.jpg'
p565
sS'owner'
p566
V67797459@N05
p567
sS'id'
p568
V30309501655
p569
sbag4
(g5
g6
NtRp570
(dp571
S'isfamily'
p572
I0
sS'title'
p573
V84920004
p574
sS'farm'
p575
I9
sg13
g14
sS'ispublic'
p576
I1
sS'server'
p577
V8554
p578
sS'isfriend'
p579
I0
sS'secret'
p580
V66e849797d
p581
sg21
S'http://farm9.static.flickr.com/8554/30274519186_66e849797d.jpg'
p582
sS'owner'
p583
V67797459@N05
p584
sS'id'
p585
V30274519186
p586
sbag4
(g5
g6
NtRp587
(dp588
S'isfamily'
p589
I0
sS'title'
p590
V84920002
p591
sS'farm'
p592
I6
sg13
g14
sS'ispublic'
p593
I1
sS'server'
p594
V5694
p595
sS'isfriend'
p596
I0
sS'secret'
p597
V44601b74d6
p598
sg21
S'http://farm6.static.flickr.com/5694/30309501445_44601b74d6.jpg'
p599
sS'owner'
p600
V67797459@N05
p601
sS'id'
p602
V30309501445
p603
sbag4
(g5
g6
NtRp604
(dp605
S'isfamily'
p606
I0
sS'title'
p607
V84920001
p608
sS'farm'
p609
I6
sg13
g14
sS'ispublic'
p610
I1
sS'server'
p611
V5586
p612
sS'isfriend'
p613
I0
sS'secret'
p614
V23b5c1377b
p615
sg21
S'http://farm6.static.flickr.com/5586/30223765341_23b5c1377b.jpg'
p616
sS'owner'
p617
V67797459@N05
p618
sS'id'
p619
V30223765341
p620
sbag4
(g5
g6
NtRp621
(dp622
S'isfamily'
p623
I0
sS'title'
p624
V84910014
p625
sS'farm'
p626
I9
sg13
g14
sS'ispublic'
p627
I1
sS'server'
p628
V8559
p629
sS'isfriend'
p630
I0
sS'secret'
p631
V5429685ebc
p632
sg21
S'http://farm9.static.flickr.com/8559/30274518606_5429685ebc.jpg'
p633
sS'owner'
p634
V67797459@N05
p635
sS'id'
p636
V30274518606
p637
sbag4
(g5
g6
NtRp638
(dp639
S'isfamily'
p640
I0
sS'title'
p641
V84910011
p642
sS'farm'
p643
I6
sg13
g14
sS'ispublic'
p644
I1
sS'server'
p645
V5817
p646
sS'isfriend'
p647
I0
sS'secret'
p648
Ve855c55422
p649
sg21
S'http://farm6.static.flickr.com/5817/30223764981_e855c55422.jpg'
p650
sS'owner'
p651
V67797459@N05
p652
sS'id'
p653
V30223764981
p654
sbag4
(g5
g6
NtRp655
(dp656
S'isfamily'
p657
I0
sS'title'
p658
V84910009
p659
sS'farm'
p660
I6
sg13
g14
sS'ispublic'
p661
I1
sS'server'
p662
V5778
p663
sS'isfriend'
p664
I0
sS'secret'
p665
V0de1acf573
p666
sg21
S'http://farm6.static.flickr.com/5778/30274518116_0de1acf573.jpg'
p667
sS'owner'
p668
V67797459@N05
p669
sS'id'
p670
V30274518116
p671
sbag4
(g5
g6
NtRp672
(dp673
S'isfamily'
p674
I0
sS'title'
p675
V84920015
p676
sS'farm'
p677
I6
sg13
g14
sS'ispublic'
p678
I1
sS'server'
p679
V5721
p680
sS'isfriend'
p681
I0
sS'secret'
p682
Vecb5918d7c
p683
sg21
S'http://farm6.static.flickr.com/5721/30309500545_ecb5918d7c.jpg'
p684
sS'owner'
p685
V67797459@N05
p686
sS'id'
p687
V30309500545
p688
sbag4
(g5
g6
NtRp689
(dp690
S'isfamily'
p691
I0
sS'title'
p692
V84920011
p693
sS'farm'
p694
I6
sg13
g14
sS'ispublic'
p695
I1
sS'server'
p696
V5582
p697
sS'isfriend'
p698
I0
sS'secret'
p699
V366976a8e1
p700
sg21
S'http://farm6.static.flickr.com/5582/30309500285_366976a8e1.jpg'
p701
sS'owner'
p702
V67797459@N05
p703
sS'id'
p704
V30309500285
p705
sbag4
(g5
g6
NtRp706
(dp707
S'isfamily'
p708
I0
sS'title'
p709
V85110015
p710
sS'farm'
p711
I6
sg13
g14
sS'ispublic'
p712
I1
sS'server'
p713
V5716
p714
sS'isfriend'
p715
I0
sS'secret'
p716
Vfef2c4689e
p717
sg21
S'http://farm6.static.flickr.com/5716/30274516976_fef2c4689e.jpg'
p718
sS'owner'
p719
V67797459@N05
p720
sS'id'
p721
V30274516976
p722
sbag4
(g5
g6
NtRp723
(dp724
S'isfamily'
p725
I0
sS'title'
p726
V85110014
p727
sS'farm'
p728
I9
sg13
g14
sS'ispublic'
p729
I1
sS'server'
p730
V8554
p731
sS'isfriend'
p732
I0
sS'secret'
p733
V434eebc954
p734
sg21
S'http://farm9.static.flickr.com/8554/30309499885_434eebc954.jpg'
p735
sS'owner'
p736
V67797459@N05
p737
sS'id'
p738
V30309499885
p739
sbag4
(g5
g6
NtRp740
(dp741
S'isfamily'
p742
I0
sS'title'
p743
VGuest of a Guest Los Angeles "Best $2k I Ever Spent" Fratboys become Modern Art in Glass Box with Beer Alex Gilman: Scope Come on Guy
p744
sS'farm'
p745
I6
sg13
g14
sS'ispublic'
p746
I1
sS'server'
p747
V5178
p748
sS'isfriend'
p749
I0
sS'secret'
p750
V086811c265
p751
sg21
S'http://farm6.static.flickr.com/5178/5530722373_086811c265.jpg'
p752
sS'owner'
p753
V65557999@N00
p754
sS'id'
p755
V5530722373
p756
sbag4
(g5
g6
NtRp757
(dp758
S'isfamily'
p759
I0
sS'title'
p760
VShotgun Beer
p761
sS'farm'
p762
I9
sg13
g14
sS'ispublic'
p763
I1
sS'server'
p764
V8154
p765
sS'isfriend'
p766
I0
sS'secret'
p767
V10bf8f730a
p768
sg21
S'http://farm9.static.flickr.com/8154/7403362684_10bf8f730a.jpg'
p769
sS'owner'
p770
V45716533@N00
p771
sS'id'
p772
V7403362684
p773
sbag4
(g5
g6
NtRp774
(dp775
S'isfamily'
p776
I0
sS'title'
p777
Vfirst attempt
p778
sS'farm'
p779
I1
sg13
g14
sS'ispublic'
p780
I1
sS'server'
p781
V35
p782
sS'isfriend'
p783
I0
sS'secret'
p784
Vb21df26c06
p785
sg21
S'http://farm1.static.flickr.com/35/70777990_b21df26c06.jpg'
p786
sS'owner'
p787
V35034360223@N01
p788
sS'id'
p789
V70777990
p790
sbag4
(g5
g6
NtRp791
(dp792
S'isfamily'
p793
I0
sS'title'
p794
VShotgun Beer
p795
sS'farm'
p796
I3
sg13
g14
sS'ispublic'
p797
I1
sS'server'
p798
V2369
p799
sS'isfriend'
p800
I0
sS'secret'
p801
V2e3a3769ec
p802
sg21
S'http://farm3.static.flickr.com/2369/2165109786_2e3a3769ec.jpg'
p803
sS'owner'
p804
V50053203@N00
p805
sS'id'
p806
V2165109786
p807
sbag4
(g5
g6
NtRp808
(dp809
S'isfamily'
p810
I0
sS'title'
p811
Vshotgun beers
p812
sS'farm'
p813
I4
sg13
g14
sS'ispublic'
p814
I1
sS'server'
p815
V3028
p816
sS'isfriend'
p817
I0
sS'secret'
p818
Vc026785bfc
p819
sg21
S'http://farm4.static.flickr.com/3028/2516800681_c026785bfc.jpg'
p820
sS'owner'
p821
V46922458@N00
p822
sS'id'
p823
V2516800681
p824
sbag4
(g5
g6
NtRp825
(dp826
S'isfamily'
p827
I0
sS'title'
p828
VShotgun beer
p829
sS'farm'
p830
I2
sg13
g14
sS'ispublic'
p831
I1
sS'server'
p832
V1023
p833
sS'isfriend'
p834
I0
sS'secret'
p835
V17ef6b19e0
p836
sg21
S'http://farm2.static.flickr.com/1023/880745846_17ef6b19e0.jpg'
p837
sS'owner'
p838
V10417988@N06
p839
sS'id'
p840
V880745846
p841
sbag4
(g5
g6
NtRp842
(dp843
S'isfamily'
p844
I0
sS'title'
p845
Vthe aftermath
p846
sS'farm'
p847
I1
sg13
g14
sS'ispublic'
p848
I1
sS'server'
p849
V136
p850
sS'isfriend'
p851
I0
sS'secret'
p852
Vf432956b9f
p853
sg21
S'http://farm1.static.flickr.com/136/346979290_f432956b9f.jpg'
p854
sS'owner'
p855
V96885113@N00
p856
sS'id'
p857
V346979290
p858
sbag4
(g5
g6
NtRp859
(dp860
S'isfamily'
p861
I0
sS'title'
p862
VShotgun beer!
p863
sS'farm'
p864
I4
sg13
g14
sS'ispublic'
p865
I1
sS'server'
p866
V3026
p867
sS'isfriend'
p868
I0
sS'secret'
p869
Vb2ce9e496a
p870
sg21
S'http://farm4.static.flickr.com/3026/2580133433_b2ce9e496a.jpg'
p871
sS'owner'
p872
V84141713@N00
p873
sS'id'
p874
V2580133433
p875
sbag4
(g5
g6
NtRp876
(dp877
S'isfamily'
p878
I0
sS'title'
p879
Vme and kyle shotgunning beer
p880
sS'farm'
p881
I1
sg13
g14
sS'ispublic'
p882
I1
sS'server'
p883
V124
p884
sS'isfriend'
p885
I0
sS'secret'
p886
V72be34084d
p887
sg21
S'http://farm1.static.flickr.com/124/322665153_72be34084d.jpg'
p888
sS'owner'
p889
V60959417@N00
p890
sS'id'
p891
V322665153
p892
sbag4
(g5
g6
NtRp893
(dp894
S'isfamily'
p895
I0
sS'title'
p896
VShotgun beers
p897
sS'farm'
p898
I5
sg13
g14
sS'ispublic'
p899
I1
sS'server'
p900
V4072
p901
sS'isfriend'
p902
I0
sS'secret'
p903
Vaabac18bde
p904
sg21
S'http://farm5.static.flickr.com/4072/4631048706_aabac18bde.jpg'
p905
sS'owner'
p906
V26128077@N05
p907
sS'id'
p908
V4631048706
p909
sbag4
(g5
g6
NtRp910
(dp911
S'isfamily'
p912
I0
sS'title'
p913
Vshotgun beer
p914
sS'farm'
p915
I4
sg13
g14
sS'ispublic'
p916
I1
sS'server'
p917
V3181
p918
sS'isfriend'
p919
I0
sS'secret'
p920
V2cf1f6eb5a
p921
sg21
S'http://farm4.static.flickr.com/3181/2605114603_2cf1f6eb5a.jpg'
p922
sS'owner'
p923
V27950870@N04
p924
sS'id'
p925
V2605114603
p926
sbag4
(g5
g6
NtRp927
(dp928
S'isfamily'
p929
I0
sS'title'
p930
Vshotgun beer stoll
p931
sS'farm'
p932
I3
sg13
g14
sS'ispublic'
p933
I1
sS'server'
p934
V2085
p935
sS'isfriend'
p936
I0
sS'secret'
p937
Vb41561d6d9
p938
sg21
S'http://farm3.static.flickr.com/2085/2382788527_b41561d6d9.jpg'
p939
sS'owner'
p940
V48196111@N00
p941
sS'id'
p942
V2382788527
p943
sbag4
(g5
g6
NtRp944
(dp945
S'isfamily'
p946
I0
sS'title'
p947
VShotgun beer cow head
p948
sS'farm'
p949
I4
sg13
g14
sS'ispublic'
p950
I1
sS'server'
p951
V3678
p952
sS'isfriend'
p953
I0
sS'secret'
p954
V9e91d4a91a
p955
sg21
S'http://farm4.static.flickr.com/3678/9665684991_9e91d4a91a.jpg'
p956
sS'owner'
p957
V18013925@N00
p958
sS'id'
p959
V9665684991
p960
sbag4
(g5
g6
NtRp961
(dp962
S'isfamily'
p963
I0
sS'title'
p964
Vhow it's done
p965
sS'farm'
p966
I1
sg13
g14
sS'ispublic'
p967
I1
sS'server'
p968
V20
p969
sS'isfriend'
p970
I0
sS'secret'
p971
V8e586042b4
p972
sg21
S'http://farm1.static.flickr.com/20/70778210_8e586042b4.jpg'
p973
sS'owner'
p974
V35034360223@N01
p975
sS'id'
p976
V70778210
p977
sbag4
(g5
g6
NtRp978
(dp979
S'isfamily'
p980
I0
sS'title'
p981
VShotgun beer at Bonnaroo
p982
sS'farm'
p983
I4
sg13
g14
sS'ispublic'
p984
I1
sS'server'
p985
V3374
p986
sS'isfriend'
p987
I0
sS'secret'
p988
V0050249100
p989
sg21
S'http://farm4.static.flickr.com/3374/3633540305_0050249100.jpg'
p990
sS'owner'
p991
V38097501@N06
p992
sS'id'
p993
V3633540305
p994
sbag4
(g5
g6
NtRp995
(dp996
S'isfamily'
p997
I0
sS'title'
p998
Vshotgun beer hi fives
p999
sS'farm'
p1000
I7
sg13
g14
sS'ispublic'
p1001
I1
sS'server'
p1002
V6128
p1003
sS'isfriend'
p1004
I0
sS'secret'
p1005
Vf893a3d432
p1006
sg21
S'http://farm7.static.flickr.com/6128/6021586557_f893a3d432.jpg'
p1007
sS'owner'
p1008
V55596031@N00
p1009
sS'id'
p1010
V6021586557
p1011
sbag4
(g5
g6
NtRp1012
(dp1013
S'isfamily'
p1014
I0
sS'title'
p1015
Vnate and sid preparing to shotgun beers
p1016
sS'farm'
p1017
I4
sg13
g14
sS'ispublic'
p1018
I1
sS'server'
p1019
V3442
p1020
sS'isfriend'
p1021
I0
sS'secret'
p1022
V76cdf5cbe4
p1023
sg21
S'http://farm4.static.flickr.com/3442/3207680934_76cdf5cbe4.jpg'
p1024
sS'owner'
p1025
V64889781@N00
p1026
sS'id'
p1027
V3207680934
p1028
sbag4
(g5
g6
NtRp1029
(dp1030
S'isfamily'
p1031
I0
sS'title'
p1032
VPost Shotgun Beers
p1033
sS'farm'
p1034
I3
sg13
g14
sS'ispublic'
p1035
I1
sS'server'
p1036
V2316
p1037
sS'isfriend'
p1038
I0
sS'secret'
p1039
V0c65401ce9
p1040
sg21
S'http://farm3.static.flickr.com/2316/1937287816_0c65401ce9.jpg'
p1041
sS'owner'
p1042
V19404222@N06
p1043
sS'id'
p1044
V1937287816
p1045
sbag4
(g5
g6
NtRp1046
(dp1047
S'isfamily'
p1048
I0
sS'title'
p1049
VPhillip forgot how to shotgun beers cuz he is getting old. #graduateproblems
p1050
sS'farm'
p1051
I6
sg13
g14
sS'ispublic'
p1052
I1
sS'server'
p1053
V5459
p1054
sS'isfriend'
p1055
I0
sS'secret'
p1056
V78b98c67fb
p1057
sg21
S'http://farm6.static.flickr.com/5459/7178795662_78b98c67fb.jpg'
p1058
sS'owner'
p1059
V68291999@N02
p1060
sS'id'
p1061
V7178795662
p1062
sbag4
(g5
g6
NtRp1063
(dp1064
S'isfamily'
p1065
I0
sS'title'
p1066
VShotgun Beer Game
p1067
sS'farm'
p1068
I2
sg13
g14
sS'ispublic'
p1069
I1
sS'server'
p1070
V1295
p1071
sS'isfriend'
p1072
I0
sS'secret'
p1073
V497f14d810
p1074
sg21
S'http://farm2.static.flickr.com/1295/879896003_497f14d810.jpg'
p1075
sS'owner'
p1076
V10417988@N06
p1077
sS'id'
p1078
V879896003
p1079
sbag4
(g5
g6
NtRp1080
(dp1081
S'isfamily'
p1082
I0
sS'title'
p1083
VNick Preparing His Shotgun Beer
p1084
sS'farm'
p1085
I4
sg13
g14
sS'ispublic'
p1086
I1
sS'server'
p1087
V3048
p1088
sS'isfriend'
p1089
I0
sS'secret'
p1090
Vc80a450dc8
p1091
sg21
S'http://farm4.static.flickr.com/3048/3014401779_c80a450dc8.jpg'
p1092
sS'owner'
p1093
V25040400@N04
p1094
sS'id'
p1095
V3014401779
p1096
sbag4
(g5
g6
NtRp1097
(dp1098
S'isfamily'
p1099
I0
sS'title'
p1100
VMidnight Shotgun
p1101
sS'farm'
p1102
I1
sg13
g14
sS'ispublic'
p1103
I1
sS'server'
p1104
V71
p1105
sS'isfriend'
p1106
I0
sS'secret'
p1107
Va28b86a5f3
p1108
sg21
S'http://farm1.static.flickr.com/71/206025414_a28b86a5f3.jpg'
p1109
sS'owner'
p1110
V54935921@N00
p1111
sS'id'
p1112
V206025414
p1113
sbag4
(g5
g6
NtRp1114
(dp1115
S'isfamily'
p1116
I0
sS'title'
p1117
V#shortshorts #shotgun #beer #highonlife #pinkpalace #sundayfundays #greece #corfu
p1118
sS'farm'
p1119
I9
sg13
g14
sS'ispublic'
p1120
I1
sS'server'
p1121
V8287
p1122
sS'isfriend'
p1123
I0
sS'secret'
p1124
Vdebaeae5bc
p1125
sg21
S'http://farm9.static.flickr.com/8287/7798549610_debaeae5bc.jpg'
p1126
sS'owner'
p1127
V45797823@N03
p1128
sS'id'
p1129
V7798549610
p1130
sbag4
(g5
g6
NtRp1131
(dp1132
S'isfamily'
p1133
I0
sS'title'
p1134
Vjeff shows us how it's done
p1135
sS'farm'
p1136
I1
sg13
g14
sS'ispublic'
p1137
I1
sS'server'
p1138
V35
p1139
sS'isfriend'
p1140
I0
sS'secret'
p1141
Vb73a5bd0cc
p1142
sg21
S'http://farm1.static.flickr.com/35/70778076_b73a5bd0cc.jpg'
p1143
sS'owner'
p1144
V35034360223@N01
p1145
sS'id'
p1146
V70778076
p1147
sbag4
(g5
g6
NtRp1148
(dp1149
S'isfamily'
p1150
I0
sS'title'
p1151
VALASKA! HOLLA!
p1152
sS'farm'
p1153
I8
sg13
g14
sS'ispublic'
p1154
I1
sS'server'
p1155
V7243
p1156
sS'isfriend'
p1157
I0
sS'secret'
p1158
V303eb18357
p1159
sg21
S'http://farm8.static.flickr.com/7243/7229146700_303eb18357.jpg'
p1160
sS'owner'
p1161
V96049018@N00
p1162
sS'id'
p1163
V7229146700
p1164
sbag4
(g5
g6
NtRp1165
(dp1166
S'isfamily'
p1167
I0
sS'title'
p1168
V123 095
p1169
sS'farm'
p1170
I2
sg13
g14
sS'ispublic'
p1171
I1
sS'server'
p1172
V1311
p1173
sS'isfriend'
p1174
I0
sS'secret'
p1175
Vf8563a15da
p1176
sg21
S'http://farm2.static.flickr.com/1311/543111466_f8563a15da.jpg'
p1177
sS'owner'
p1178
V7899463@N06
p1179
sS'id'
p1180
V543111466
p1181
sbag4
(g5
g6
NtRp1182
(dp1183
S'isfamily'
p1184
I0
sS'title'
p1185
VOna and Adam shotgun beers
p1186
sS'farm'
p1187
I1
sg13
g14
sS'ispublic'
p1188
I1
sS'server'
p1189
V79
p1190
sS'isfriend'
p1191
I0
sS'secret'
p1192
Vdfff462320
p1193
sg21
S'http://farm1.static.flickr.com/79/208529678_dfff462320.jpg'
p1194
sS'owner'
p1195
V65328119@N00
p1196
sS'id'
p1197
V208529678
p1198
sbag4
(g5
g6
NtRp1199
(dp1200
S'isfamily'
p1201
I0
sS'title'
p1202
Vdo NOT let them shotgun beer again
p1203
sS'farm'
p1204
I4
sg13
g14
sS'ispublic'
p1205
I1
sS'server'
p1206
V3540
p1207
sS'isfriend'
p1208
I0
sS'secret'
p1209
V1e4af6bf6a
p1210
sg21
S'http://farm4.static.flickr.com/3540/3515800405_1e4af6bf6a.jpg'
p1211
sS'owner'
p1212
V21256898@N00
p1213
sS'id'
p1214
V3515800405
p1215
sbag4
(g5
g6
NtRp1216
(dp1217
S'isfamily'
p1218
I0
sS'title'
p1219
V12 Gauge in one hand, beer in the other. #newbrunswick #canada #12gauge #shotgun #beer #gf_daily #all_shots #iphoneography #instagood #webstagram #instamood #instadaily #instahub #iphonesia
p1220
sS'farm'
p1221
I8
sg13
g14
sS'ispublic'
p1222
I1
sS'server'
p1223
V7159
p1224
sS'isfriend'
p1225
I0
sS'secret'
p1226
V5c901fc8cd
p1227
sg21
S'http://farm8.static.flickr.com/7159/6642976333_5c901fc8cd.jpg'
p1228
sS'owner'
p1229
V71835193@N02
p1230
sS'id'
p1231
V6642976333
p1232
sbag4
(g5
g6
NtRp1233
(dp1234
S'isfamily'
p1235
I0
sS'title'
p1236
V2012 Voodoo Carnival-9448
p1237
sS'farm'
p1238
I8
sg13
g14
sS'ispublic'
p1239
I1
sS'server'
p1240
V7050
p1241
sS'isfriend'
p1242
I0
sS'secret'
p1243
Vbdd387ee3e
p1244
sg21
S'http://farm8.static.flickr.com/7050/6915216531_bdd387ee3e.jpg'
p1245
sS'owner'
p1246
V30208577@N07
p1247
sS'id'
p1248
V6915216531
p1249
sbag4
(g5
g6
NtRp1250
(dp1251
S'isfamily'
p1252
I0
sS'title'
p1253
Veven fancy people shotgun beers
p1254
sS'farm'
p1255
I1
sg13
g14
sS'ispublic'
p1256
I1
sS'server'
p1257
V55
p1258
sS'isfriend'
p1259
I0
sS'secret'
p1260
V07c0e2516b
p1261
sg21
S'http://farm1.static.flickr.com/55/182854391_07c0e2516b.jpg'
p1262
sS'owner'
p1263
V81951708@N00
p1264
sS'id'
p1265
V182854391
p1266
sbag4
(g5
g6
NtRp1267
(dp1268
S'isfamily'
p1269
I0
sS'title'
p1270
VRob and Heidi shotgun beer
p1271
sS'farm'
p1272
I1
sg13
g14
sS'ispublic'
p1273
I1
sS'server'
p1274
V114
p1275
sS'isfriend'
p1276
I0
sS'secret'
p1277
Vc88eb2833a
p1278
sg21
S'http://farm1.static.flickr.com/114/286173228_c88eb2833a.jpg'
p1279
sS'owner'
p1280
V44717781@N00
p1281
sS'id'
p1282
V286173228
p1283
sbag4
(g5
g6
NtRp1284
(dp1285
S'isfamily'
p1286
I0
sS'title'
p1287
VFreshmen. #shotgun #beer #usc #football #tailgate
p1288
sS'farm'
p1289
I3
sg13
g14
sS'ispublic'
p1290
I1
sS'server'
p1291
V2947
p1292
sS'isfriend'
p1293
I0
sS'secret'
p1294
V868ce506ee
p1295
sg21
S'http://farm3.static.flickr.com/2947/15188809508_868ce506ee.jpg'
p1296
sS'owner'
p1297
V73054047@N00
p1298
sS'id'
p1299
V15188809508
p1300
sbag4
(g5
g6
NtRp1301
(dp1302
S'isfamily'
p1303
I0
sS'title'
p1304
VA and V shotgun beers
p1305
sS'farm'
p1306
I4
sg13
g14
sS'ispublic'
p1307
I1
sS'server'
p1308
V3342
p1309
sS'isfriend'
p1310
I0
sS'secret'
p1311
V949018ca38
p1312
sg21
S'http://farm4.static.flickr.com/3342/4602066827_949018ca38.jpg'
p1313
sS'owner'
p1314
V11138607@N05
p1315
sS'id'
p1316
V4602066827
p1317
sbag4
(g5
g6
NtRp1318
(dp1319
S'isfamily'
p1320
I0
sS'title'
p1321
VPreparing to Shotgun Beers
p1322
sS'farm'
p1323
I4
sg13
g14
sS'ispublic'
p1324
I1
sS'server'
p1325
V3057
p1326
sS'isfriend'
p1327
I0
sS'secret'
p1328
V88ea18d835
p1329
sg21
S'http://farm4.static.flickr.com/3057/3074006990_88ea18d835.jpg'
p1330
sS'owner'
p1331
V66571748@N00
p1332
sS'id'
p1333
V3074006990
p1334
sbag4
(g5
g6
NtRp1335
(dp1336
S'isfamily'
p1337
I0
sS'title'
p1338
VPreparing to Shotgun Beers
p1339
sS'farm'
p1340
I1
sg13
g14
sS'ispublic'
p1341
I1
sS'server'
p1342
V33
p1343
sS'isfriend'
p1344
I0
sS'secret'
p1345
V0850264fa9
p1346
sg21
S'http://farm1.static.flickr.com/33/37352243_0850264fa9.jpg'
p1347
sS'owner'
p1348
V58552303@N00
p1349
sS'id'
p1350
V37352243
p1351
sbag4
(g5
g6
NtRp1352
(dp1353
S'isfamily'
p1354
I0
sS'title'
p1355
VAndy trying to learn how to shotgun beers.
p1356
sS'farm'
p1357
I4
sg13
g14
sS'ispublic'
p1358
I1
sS'server'
p1359
V3628
p1360
sS'isfriend'
p1361
I0
sS'secret'
p1362
V5ea940bf47
p1363
sg21
S'http://farm4.static.flickr.com/3628/3694356517_5ea940bf47.jpg'
p1364
sS'owner'
p1365
V8842981@N03
p1366
sS'id'
p1367
V3694356517
p1368
sbag4
(g5
g6
NtRp1369
(dp1370
S'isfamily'
p1371
I0
sS'title'
p1372
V*shotguns beer* *plays every Jonas brothers song to ever exist*
p1373
sS'farm'
p1374
I2
sg13
g14
sS'ispublic'
p1375
I1
sS'server'
p1376
V1615
p1377
sS'isfriend'
p1378
I0
sS'secret'
p1379
V31502a086b
p1380
sg21
S'http://farm2.static.flickr.com/1615/24562935125_31502a086b.jpg'
p1381
sS'owner'
p1382
V131046520@N08
p1383
sS'id'
p1384
V24562935125
p1385
sbag4
(g5
g6
NtRp1386
(dp1387
S'isfamily'
p1388
I0
sS'title'
p1389
VQuas
p1390
sS'farm'
p1391
I4
sg13
g14
sS'ispublic'
p1392
I1
sS'server'
p1393
V3798
p1394
sS'isfriend'
p1395
I0
sS'secret'
p1396
Vbaedf80580
p1397
sg21
S'http://farm4.static.flickr.com/3798/9907380775_baedf80580.jpg'
p1398
sS'owner'
p1399
V68768641@N07
p1400
sS'id'
p1401
V9907380775
p1402
sbag4
(g5
g6
NtRp1403
(dp1404
S'isfamily'
p1405
I0
sS'title'
p1406
VShotgun beer, the begining...
p1407
sS'farm'
p1408
I1
sg13
g14
sS'ispublic'
p1409
I1
sS'server'
p1410
V169
p1411
sS'isfriend'
p1412
I0
sS'secret'
p1413
V811f9ad5e0
p1414
sg21
S'http://farm1.static.flickr.com/169/429807228_811f9ad5e0.jpg'
p1415
sS'owner'
p1416
V7370010@N05
p1417
sS'id'
p1418
V429807228
p1419
sbag4
(g5
g6
NtRp1420
(dp1421
S'isfamily'
p1422
I0
sS'title'
p1423
VBeers and hamburgers with #bacon at the local grocery store. Shotgun beers + security = noi problemo
p1424
sS'farm'
p1425
I9
sg13
g14
sS'ispublic'
p1426
I1
sS'server'
p1427
V8322
p1428
sS'isfriend'
p1429
I0
sS'secret'
p1430
Veedc09e61e
p1431
sg21
S'http://farm9.static.flickr.com/8322/8069397026_eedc09e61e.jpg'
p1432
sS'owner'
p1433
V29469045@N02
p1434
sS'id'
p1435
V8069397026
p1436
sbag4
(g5
g6
NtRp1437
(dp1438
S'isfamily'
p1439
I0
sS'title'
p1440
Veven fancy people shotgun beers
p1441
sS'farm'
p1442
I1
sg13
g14
sS'ispublic'
p1443
I1
sS'server'
p1444
V65
p1445
sS'isfriend'
p1446
I0
sS'secret'
p1447
V192c94f86e
p1448
sg21
S'http://farm1.static.flickr.com/65/182854449_192c94f86e.jpg'
p1449
sS'owner'
p1450
V81951708@N00
p1451
sS'id'
p1452
V182854449
p1453
sbag4
(g5
g6
NtRp1454
(dp1455
S'isfamily'
p1456
I0
sS'title'
p1457
Vnate and sid preparing to shotgun beers
p1458
sS'farm'
p1459
I4
sg13
g14
sS'ispublic'
p1460
I1
sS'server'
p1461
V3346
p1462
sS'isfriend'
p1463
I0
sS'secret'
p1464
V86ea28c8af
p1465
sg21
S'http://farm4.static.flickr.com/3346/3207681486_86ea28c8af.jpg'
p1466
sS'owner'
p1467
V64889781@N00
p1468
sS'id'
p1469
V3207681486
p1470
sbag4
(g5
g6
NtRp1471
(dp1472
S'isfamily'
p1473
I0
sS'title'
p1474
Vsometimes you just have to shotgun beer in the desert
p1475
sS'farm'
p1476
I3
sg13
g14
sS'ispublic'
p1477
I1
sS'server'
p1478
V2377
p1479
sS'isfriend'
p1480
I0
sS'secret'
p1481
Vcfddb127f9
p1482
sg21
S'http://farm3.static.flickr.com/2377/2193618562_cfddb127f9.jpg'
p1483
sS'owner'
p1484
V67329567@N00
p1485
sS'id'
p1486
V2193618562
p1487
sbag4
(g5
g6
NtRp1488
(dp1489
S'isfamily'
p1490
I0
sS'title'
p1491
VJanuary 7, 2010 - Day 1 - Stuff
p1492
sS'farm'
p1493
I5
sg13
g14
sS'ispublic'
p1494
I1
sS'server'
p1495
V4019
p1496
sS'isfriend'
p1497
I0
sS'secret'
p1498
Vc8322b436a
p1499
sg21
S'http://farm5.static.flickr.com/4019/4255384518_c8322b436a.jpg'
p1500
sS'owner'
p1501
V34454283@N08
p1502
sS'id'
p1503
V4255384518
p1504
sbag4
(g5
g6
NtRp1505
(dp1506
S'isfamily'
p1507
I0
sS'title'
p1508
VDay 284 of 365
p1509
sS'farm'
p1510
I3
sg13
g14
sS'ispublic'
p1511
I1
sS'server'
p1512
V2386
p1513
sS'isfriend'
p1514
I0
sS'secret'
p1515
Vde6daf8faf
p1516
sg21
S'http://farm3.static.flickr.com/2386/1991007623_de6daf8faf.jpg'
p1517
sS'owner'
p1518
V21897757@N00
p1519
sS'id'
p1520
V1991007623
p1521
sbag4
(g5
g6
NtRp1522
(dp1523
S'isfamily'
p1524
I0
sS'title'
p1525
Vsomeone learned how to shotgun beers
p1526
sS'farm'
p1527
I4
sg13
g14
sS'ispublic'
p1528
I1
sS'server'
p1529
V3071
p1530
sS'isfriend'
p1531
I0
sS'secret'
p1532
Vaaa592f1d8
p1533
sg21
S'http://farm4.static.flickr.com/3071/2960630810_aaa592f1d8.jpg'
p1534
sS'owner'
p1535
V36981811@N00
p1536
sS'id'
p1537
V2960630810
p1538
sbag4
(g5
g6
NtRp1539
(dp1540
S'isfamily'
p1541
I0
sS'title'
p1542
VTennis Time
p1543
sS'farm'
p1544
I5
sg13
g14
sS'ispublic'
p1545
I1
sS'server'
p1546
V4006
p1547
sS'isfriend'
p1548
I0
sS'secret'
p1549
Vc52daca9af
p1550
sg21
S'http://farm5.static.flickr.com/4006/4662781780_c52daca9af.jpg'
p1551
sS'owner'
p1552
V16555488@N00
p1553
sS'id'
p1554
V4662781780
p1555
sbag4
(g5
g6
NtRp1556
(dp1557
S'isfamily'
p1558
I0
sS'title'
p1559
VStarship Pegasus
p1560
sS'farm'
p1561
I4
sg13
g14
sS'ispublic'
p1562
I1
sS'server'
p1563
V3374
p1564
sS'isfriend'
p1565
I0
sS'secret'
p1566
V8916e3fc45
p1567
sg21
S'http://farm4.static.flickr.com/3374/3276172054_8916e3fc45.jpg'
p1568
sS'owner'
p1569
V94722868@N00
p1570
sS'id'
p1571
V3276172054
p1572
sbag4
(g5
g6
NtRp1573
(dp1574
S'isfamily'
p1575
I0
sS'title'
p1576
VIMG_4906.CR2
p1577
sS'farm'
p1578
I4
sg13
g14
sS'ispublic'
p1579
I1
sS'server'
p1580
V3531
p1581
sS'isfriend'
p1582
I0
sS'secret'
p1583
Ve4ac6635dc
p1584
sg21
S'http://farm4.static.flickr.com/3531/5755880686_e4ac6635dc.jpg'
p1585
sS'owner'
p1586
V60086325@N03
p1587
sS'id'
p1588
V5755880686
p1589
sbag4
(g5
g6
NtRp1590
(dp1591
S'isfamily'
p1592
I0
sS'title'
p1593
VAntennae
p1594
sS'farm'
p1595
I4
sg13
g14
sS'ispublic'
p1596
I1
sS'server'
p1597
V3402
p1598
sS'isfriend'
p1599
I0
sS'secret'
p1600
Va9de736c25
p1601
sg21
S'http://farm4.static.flickr.com/3402/3275350811_a9de736c25.jpg'
p1602
sS'owner'
p1603
V94722868@N00
p1604
sS'id'
p1605
V3275350811
p1606
sbag4
(g5
g6
NtRp1607
(dp1608
S'isfamily'
p1609
I0
sS'title'
p1610
VGetting Ready to Shotgun Beers
p1611
sS'farm'
p1612
I1
sg13
g14
sS'ispublic'
p1613
I1
sS'server'
p1614
V1
sS'isfriend'
p1615
I0
sS'secret'
p1616
V4371192272
p1617
sg21
S'http://farm1.static.flickr.com/1/123247962_4371192272.jpg'
p1618
sS'owner'
p1619
V76376829@N00
p1620
sS'id'
p1621
V123247962
p1622
sbag4
(g5
g6
NtRp1623
(dp1624
S'isfamily'
p1625
I0
sS'title'
p1626
Vnon Rothko Rothko
p1627
sS'farm'
p1628
I4
sg13
g14
sS'ispublic'
p1629
I1
sS'server'
p1630
V3364
p1631
sS'isfriend'
p1632
I0
sS'secret'
p1633
V80bca2cace
p1634
sg21
S'http://farm4.static.flickr.com/3364/3275350489_80bca2cace.jpg'
p1635
sS'owner'
p1636
V94722868@N00
p1637
sS'id'
p1638
V3275350489
p1639
sbag4
(g5
g6
NtRp1640
(dp1641
S'isfamily'
p1642
I0
sS'title'
p1643
VStarship Pegasus
p1644
sS'farm'
p1645
I4
sg13
g14
sS'ispublic'
p1646
I1
sS'server'
p1647
V3306
p1648
sS'isfriend'
p1649
I0
sS'secret'
p1650
V6305213edd
p1651
sg21
S'http://farm4.static.flickr.com/3306/3276172418_6305213edd.jpg'
p1652
sS'owner'
p1653
V94722868@N00
p1654
sS'id'
p1655
V3276172418
p1656
sbag4
(g5
g6
NtRp1657
(dp1658
S'isfamily'
p1659
I0
sS'title'
p1660
VIMG_0848
p1661
sS'farm'
p1662
I1
sg13
g14
sS'ispublic'
p1663
I1
sS'server'
p1664
V149
p1665
sS'isfriend'
p1666
I0
sS'secret'
p1667
V022677874d
p1668
sg21
S'http://farm1.static.flickr.com/149/330246750_022677874d.jpg'
p1669
sS'owner'
p1670
V55702300@N00
p1671
sS'id'
p1672
V330246750
p1673
sbag4
(g5
g6
NtRp1674
(dp1675
S'isfamily'
p1676
I0
sS'title'
p1677
VGetting ready to shotgun beers
p1678
sS'farm'
p1679
I9
sg13
g14
sS'ispublic'
p1680
I1
sS'server'
p1681
V8445
p1682
sS'isfriend'
p1683
I0
sS'secret'
p1684
V5003cafd43
p1685
sg21
S'http://farm9.static.flickr.com/8445/7922231390_5003cafd43.jpg'
p1686
sS'owner'
p1687
V62040878@N08
p1688
sS'id'
p1689
V7922231390
p1690
sbag4
(g5
g6
NtRp1691
(dp1692
S'isfamily'
p1693
I0
sS'title'
p1694
VEmily Learning how to Shotgun Beer
p1695
sS'farm'
p1696
I1
sg13
g14
sS'ispublic'
p1697
I1
sS'server'
p1698
V87
p1699
sS'isfriend'
p1700
I0
sS'secret'
p1701
V37d4fe77c0
p1702
sg21
S'http://farm1.static.flickr.com/87/247934229_37d4fe77c0.jpg'
p1703
sS'owner'
p1704
V58158098@N00
p1705
sS'id'
p1706
V247934229
p1707
sbag4
(g5
g6
NtRp1708
(dp1709
S'isfamily'
p1710
I0
sS'title'
p1711
VCome spend your day with me. I'm lonely. Let's eat, shotgun beers, and talk television.
p1712
sS'farm'
p1713
I9
sg13
g14
sS'ispublic'
p1714
I1
sS'server'
p1715
V8585
p1716
sS'isfriend'
p1717
I0
sS'secret'
p1718
V8bff7775c8
p1719
sg21
S'http://farm9.static.flickr.com/8585/15689152674_8bff7775c8.jpg'
p1720
sS'owner'
p1721
V129372223@N02
p1722
sS'id'
p1723
V15689152674
p1724
sbag4
(g5
g6
NtRp1725
(dp1726
S'isfamily'
p1727
I0
sS'title'
p1728
Vbunch of daytime randomness #shotguns #beer #neighbors @kavehabedini @maxtarlton @katrinaangeline @whatsthatjacket
p1729
sS'farm'
p1730
I4
sg13
g14
sS'ispublic'
p1731
I1
sS'server'
p1732
V3851
p1733
sS'isfriend'
p1734
I0
sS'secret'
p1735
V2f9ec6988b
p1736
sg21
S'http://farm4.static.flickr.com/3851/14705450499_2f9ec6988b.jpg'
p1737
sS'owner'
p1738
V72346081@N05
p1739
sS'id'
p1740
V14705450499
p1741
sbag4
(g5
g6
NtRp1742
(dp1743
S'isfamily'
p1744
I0
sS'title'
p1745
Vdan and friends shotgun beers
p1746
sS'farm'
p1747
I4
sg13
g14
sS'ispublic'
p1748
I1
sS'server'
p1749
V3228
p1750
sS'isfriend'
p1751
I0
sS'secret'
p1752
V9836036f16
p1753
sg21
S'http://farm4.static.flickr.com/3228/2753033083_9836036f16.jpg'
p1754
sS'owner'
p1755
V10701142@N05
p1756
sS'id'
p1757
V2753033083
p1758
sbag4
(g5
g6
NtRp1759
(dp1760
S'isfamily'
p1761
I0
sS'title'
p1762
V20120414 Juke Joint Festival NightIMG_2130
p1763
sS'farm'
p1764
I9
sg13
g14
sS'ispublic'
p1765
I1
sS'server'
p1766
V8442
p1767
sS'isfriend'
p1768
I0
sS'secret'
p1769
V9ab999be28
p1770
sg21
S'http://farm9.static.flickr.com/8442/7769673488_9ab999be28.jpg'
p1771
sS'owner'
p1772
V25452839@N06
p1773
sS'id'
p1774
V7769673488
p1775
sbag4
(g5
g6
NtRp1776
(dp1777
S'isfamily'
p1778
I0
sS'title'
p1779
VDrink, random people, drink!
p1780
sS'farm'
p1781
I4
sg13
g14
sS'ispublic'
p1782
I1
sS'server'
p1783
V3422
p1784
sS'isfriend'
p1785
I0
sS'secret'
p1786
Vcdcb7b2161
p1787
sg21
S'http://farm4.static.flickr.com/3422/3276170586_cdcb7b2161.jpg'
p1788
sS'owner'
p1789
V94722868@N00
p1790
sS'id'
p1791
V3276170586
p1792
sbag4
(g5
g6
NtRp1793
(dp1794
S'isfamily'
p1795
I0
sS'title'
p1796
Veven fancy people shotgun beers
p1797
sS'farm'
p1798
I1
sg13
g14
sS'ispublic'
p1799
I1
sS'server'
p1800
V53
p1801
sS'isfriend'
p1802
I0
sS'secret'
p1803
V44936d6a31
p1804
sg21
S'http://farm1.static.flickr.com/53/182854354_44936d6a31.jpg'
p1805
sS'owner'
p1806
V81951708@N00
p1807
sS'id'
p1808
V182854354
p1809
sbag4
(g5
g6
NtRp1810
(dp1811
S'isfamily'
p1812
I0
sS'title'
p1813
VIMG_0179
p1814
sS'farm'
p1815
I1
sg13
g14
sS'ispublic'
p1816
I1
sS'server'
p1817
V33
p1818
sS'isfriend'
p1819
I0
sS'secret'
p1820
V5d4be589a4
p1821
sg21
S'http://farm1.static.flickr.com/33/59977473_5d4be589a4.jpg'
p1822
sS'owner'
p1823
V39368085@N00
p1824
sS'id'
p1825
V59977473
p1826
sbag4
(g5
g6
NtRp1827
(dp1828
S'isfamily'
p1829
I0
sS'title'
p1830
Vbrother sport
p1831
sS'farm'
p1832
I4
sg13
g14
sS'ispublic'
p1833
I1
sS'server'
p1834
V3516
p1835
sS'isfriend'
p1836
I0
sS'secret'
p1837
Vae64031969
p1838
sg21
S'http://farm4.static.flickr.com/3516/3291222230_ae64031969.jpg'
p1839
sS'owner'
p1840
V34482926@N00
p1841
sS'id'
p1842
V3291222230
p1843
sbag4
(g5
g6
NtRp1844
(dp1845
S'isfamily'
p1846
I0
sS'title'
p1847
VLove
p1848
sS'farm'
p1849
I4
sg13
g14
sS'ispublic'
p1850
I1
sS'server'
p1851
V3196
p1852
sS'isfriend'
p1853
I0
sS'secret'
p1854
V062b8726f0
p1855
sg21
S'http://farm4.static.flickr.com/3196/2880773159_062b8726f0.jpg'
p1856
sS'owner'
p1857
V30710393@N07
p1858
sS'id'
p1859
V2880773159
p1860
sbag4
(g5
g6
NtRp1861
(dp1862
S'isfamily'
p1863
I0
sS'title'
p1864
VPreparation
p1865
sS'farm'
p1866
I8
sg13
g14
sS'ispublic'
p1867
I1
sS'server'
p1868
V7228
p1869
sS'isfriend'
p1870
I0
sS'secret'
p1871
Ve37d74704a
p1872
sg21
S'http://farm8.static.flickr.com/7228/7102661361_e37d74704a.jpg'
p1873
sS'owner'
p1874
V76373753@N04
p1875
sS'id'
p1876
V7102661361
p1877
sbag4
(g5
g6
NtRp1878
(dp1879
S'isfamily'
p1880
I0
sS'title'
p1881
Vmy greatest idea
p1882
sS'farm'
p1883
I4
sg13
g14
sS'ispublic'
p1884
I1
sS'server'
p1885
V3220
p1886
sS'isfriend'
p1887
I0
sS'secret'
p1888
V74e1bd80a1
p1889
sg21
S'http://farm4.static.flickr.com/3220/2968460924_74e1bd80a1.jpg'
p1890
sS'owner'
p1891
V31704317@N04
p1892
sS'id'
p1893
V2968460924
p1894
sbag4
(g5
g6
NtRp1895
(dp1896
S'isfamily'
p1897
I0
sS'title'
p1898
VSenior skip day! #shotgun #beers #campout #blackout #bestnightever #westood #skipday  @kelseyleeh @k05hall @zeaston9 @haleypedreira @imjustsodeep @liltommyrich
p1899
sS'farm'
p1900
I9
sg13
g14
sS'ispublic'
p1901
I1
sS'server'
p1902
V8044
p1903
sS'isfriend'
p1904
I0
sS'secret'
p1905
Vc24b12614e
p1906
sg21
S'http://farm9.static.flickr.com/8044/8431107965_c24b12614e.jpg'
p1907
sS'owner'
p1908
V92258228@N06
p1909
sS'id'
p1910
V8431107965
p1911
sbag4
(g5
g6
NtRp1912
(dp1913
S'isfamily'
p1914
I0
sS'title'
p1915
VLeftovers
p1916
sS'farm'
p1917
I7
sg13
g14
sS'ispublic'
p1918
I1
sS'server'
p1919
V6229
p1920
sS'isfriend'
p1921
I0
sS'secret'
p1922
V1cdd612d5e
p1923
sg21
S'http://farm7.static.flickr.com/6229/6310825413_1cdd612d5e.jpg'
p1924
sS'owner'
p1925
V34663139@N02
p1926
sS'id'
p1927
V6310825413
p1928
sbag4
(g5
g6
NtRp1929
(dp1930
S'isfamily'
p1931
I0
sS'title'
p1932
VDSC_1675
p1933
sS'farm'
p1934
I4
sg13
g14
sS'ispublic'
p1935
I1
sS'server'
p1936
V3394
p1937
sS'isfriend'
p1938
I0
sS'secret'
p1939
Vc8c927703c
p1940
sg21
S'http://farm4.static.flickr.com/3394/3275350369_c8c927703c.jpg'
p1941
sS'owner'
p1942
V94722868@N00
p1943
sS'id'
p1944
V3275350369
p1945
sbag4
(g5
g6
NtRp1946
(dp1947
S'isfamily'
p1948
I0
sS'title'
p1949
Vshotgun yoni
p1950
sS'farm'
p1951
I1
sg13
g14
sS'ispublic'
p1952
I1
sS'server'
p1953
V24
p1954
sS'isfriend'
p1955
I0
sS'secret'
p1956
Vd84be986c1
p1957
sg21
S'http://farm1.static.flickr.com/24/46214614_d84be986c1.jpg'
p1958
sS'owner'
p1959
V16422778@N00
p1960
sS'id'
p1961
V46214614
p1962
sbag4
(g5
g6
NtRp1963
(dp1964
S'isfamily'
p1965
I0
sS'title'
p1966
VShotgunning
p1967
sS'farm'
p1968
I1
sg13
g14
sS'ispublic'
p1969
I1
sS'server'
p1970
V38
p1971
sS'isfriend'
p1972
I0
sS'secret'
p1973
V89ba5995e1
p1974
sg21
S'http://farm1.static.flickr.com/38/123752695_89ba5995e1.jpg'
p1975
sS'owner'
p1976
V39254644@N00
p1977
sS'id'
p1978
V123752695
p1979
sbag4
(g5
g6
NtRp1980
(dp1981
S'isfamily'
p1982
I0
sS'title'
p1983
V20120414 Juke Joint Festival NightIMG_2134
p1984
sS'farm'
p1985
I9
sg13
g14
sS'ispublic'
p1986
I1
sS'server'
p1987
V8437
p1988
sS'isfriend'
p1989
I0
sS'secret'
p1990
Vedaa24ab25
p1991
sg21
S'http://farm9.static.flickr.com/8437/7769675474_edaa24ab25.jpg'
p1992
sS'owner'
p1993
V25452839@N06
p1994
sS'id'
p1995
V7769675474
p1996
sbag4
(g5
g6
NtRp1997
(dp1998
S'isfamily'
p1999
I0
sS'title'
p2000
VStarship Putt Putt
p2001
sS'farm'
p2002
I4
sg13
g14
sS'ispublic'
p2003
I1
sS'server'
p2004
V3316
p2005
sS'isfriend'
p2006
I0
sS'secret'
p2007
V5800cd1114
p2008
sg21
S'http://farm4.static.flickr.com/3316/3275351225_5800cd1114.jpg'
p2009
sS'owner'
p2010
V94722868@N00
p2011
sS'id'
p2012
V3275351225
p2013
sbag4
(g5
g6
NtRp2014
(dp2015
S'isfamily'
p2016
I0
sS'title'
p2017
Vnate and sid preparing to shotgun beers
p2018
sS'farm'
p2019
I4
sg13
g14
sS'ispublic'
p2020
I1
sS'server'
p2021
V3427
p2022
sS'isfriend'
p2023
I0
sS'secret'
p2024
Vbfc1a881b9
p2025
sg21
S'http://farm4.static.flickr.com/3427/3206836137_bfc1a881b9.jpg'
p2026
sS'owner'
p2027
V64889781@N00
p2028
sS'id'
p2029
V3206836137
p2030
sbag4
(g5
g6
NtRp2031
(dp2032
S'isfamily'
p2033
I0
sS'title'
p2034
V20120414 Juke Joint Festival NightIMG_2136
p2035
sS'farm'
p2036
I9
sg13
g14
sS'ispublic'
p2037
I1
sS'server'
p2038
V8293
p2039
sS'isfriend'
p2040
I0
sS'secret'
p2041
V83deac8be4
p2042
sg21
S'http://farm9.static.flickr.com/8293/7769677456_83deac8be4.jpg'
p2043
sS'owner'
p2044
V25452839@N06
p2045
sS'id'
p2046
V7769677456
p2047
sbag4
(g5
g6
NtRp2048
(dp2049
S'isfamily'
p2050
I0
sS'title'
p2051
V____________
p2052
sS'farm'
p2053
I4
sg13
g14
sS'ispublic'
p2054
I1
sS'server'
p2055
V3612
p2056
sS'isfriend'
p2057
I0
sS'secret'
p2058
Ve03ae88605
p2059
sg21
S'http://farm4.static.flickr.com/3612/3519578864_e03ae88605.jpg'
p2060
sS'owner'
p2061
V29718755@N07
p2062
sS'id'
p2063
V3519578864
p2064
sbag4
(g5
g6
NtRp2065
(dp2066
S'isfamily'
p2067
I0
sS'title'
p2068
VShe's a champ.
p2069
sS'farm'
p2070
I4
sg13
g14
sS'ispublic'
p2071
I1
sS'server'
p2072
V3325
p2073
sS'isfriend'
p2074
I0
sS'secret'
p2075
V256e9b8bb0
p2076
sg21
S'http://farm4.static.flickr.com/3325/3276170436_256e9b8bb0.jpg'
p2077
sS'owner'
p2078
V94722868@N00
p2079
sS'id'
p2080
V3276170436
p2081
sbag4
(g5
g6
NtRp2082
(dp2083
S'isfamily'
p2084
I0
sS'title'
p2085
VColin teaches ET how to shotgun beer
p2086
sS'farm'
p2087
I4
sg13
g14
sS'ispublic'
p2088
I1
sS'server'
p2089
V3025
p2090
sS'isfriend'
p2091
I0
sS'secret'
p2092
V1df6af98ac
p2093
sg21
S'http://farm4.static.flickr.com/3025/2724648208_1df6af98ac.jpg'
p2094
sS'owner'
p2095
V90927002@N00
p2096
sS'id'
p2097
V2724648208
p2098
sbag4
(g5
g6
NtRp2099
(dp2100
S'isfamily'
p2101
I0
sS'title'
p2102
Vbarna_chug
p2103
sS'farm'
p2104
I1
sg13
g14
sS'ispublic'
p2105
I1
sS'server'
p2106
V148
p2107
sS'isfriend'
p2108
I0
sS'secret'
p2109
V38bf6c1df1
p2110
sg21
S'http://farm1.static.flickr.com/148/401294375_38bf6c1df1.jpg'
p2111
sS'owner'
p2112
V43676282@N00
p2113
sS'id'
p2114
V401294375
p2115
sbag4
(g5
g6
NtRp2116
(dp2117
S'isfamily'
p2118
I0
sS'title'
p2119
VIMG_0180
p2120
sS'farm'
p2121
I1
sg13
g14
sS'ispublic'
p2122
I1
sS'server'
p2123
V28
p2124
sS'isfriend'
p2125
I0
sS'secret'
p2126
V955fb013a2
p2127
sg21
S'http://farm1.static.flickr.com/28/59977474_955fb013a2.jpg'
p2128
sS'owner'
p2129
V39368085@N00
p2130
sS'id'
p2131
V59977474
p2132
sbag4
(g5
g6
NtRp2133
(dp2134
S'isfamily'
p2135
I0
sS'title'
p2136
VTeapoy&Sofa
p2137
sS'farm'
p2138
I4
sg13
g14
sS'ispublic'
p2139
I1
sS'server'
p2140
V3242
p2141
sS'isfriend'
p2142
I0
sS'secret'
p2143
Vb0c4ed985d
p2144
sg21
S'http://farm4.static.flickr.com/3242/2452747573_b0c4ed985d.jpg'
p2145
sS'owner'
p2146
V23669259@N04
p2147
sS'id'
p2148
V2452747573
p2149
sbag4
(g5
g6
NtRp2150
(dp2151
S'isfamily'
p2152
I0
sS'title'
p2153
VStarship Putt Putt
p2154
sS'farm'
p2155
I4
sg13
g14
sS'ispublic'
p2156
I1
sS'server'
p2157
V3450
p2158
sS'isfriend'
p2159
I0
sS'secret'
p2160
Vfa7b4dbc8b
p2161
sg21
S'http://farm4.static.flickr.com/3450/3275351511_fa7b4dbc8b.jpg'
p2162
sS'owner'
p2163
V94722868@N00
p2164
sS'id'
p2165
V3275351511
p2166
sbag4
(g5
g6
NtRp2167
(dp2168
S'isfamily'
p2169
I0
sS'title'
p2170
VBeervest
p2171
sS'farm'
p2172
I3
sg13
g14
sS'ispublic'
p2173
I1
sS'server'
p2174
V2054
p2175
sS'isfriend'
p2176
I0
sS'secret'
p2177
V4ab7419086
p2178
sg21
S'http://farm3.static.flickr.com/2054/2051421287_4ab7419086.jpg'
p2179
sS'owner'
p2180
V12102745@N03
p2181
sS'id'
p2182
V2051421287
p2183
sbag4
(g5
g6
NtRp2184
(dp2185
S'isfamily'
p2186
I0
sS'title'
p2187
VColin teaches ET how to shotgun beer
p2188
sS'farm'
p2189
I4
sg13
g14
sS'ispublic'
p2190
I1
sS'server'
p2191
V3102
p2192
sS'isfriend'
p2193
I0
sS'secret'
p2194
V9b56cfe376
p2195
sg21
S'http://farm4.static.flickr.com/3102/2724647974_9b56cfe376.jpg'
p2196
sS'owner'
p2197
V90927002@N00
p2198
sS'id'
p2199
V2724647974
p2200
sbag4
(g5
g6
NtRp2201
(dp2202
S'isfamily'
p2203
I0
sS'title'
p2204
VColin teaches ET how to shotgun beer
p2205
sS'farm'
p2206
I4
sg13
g14
sS'ispublic'
p2207
I1
sS'server'
p2208
V3246
p2209
sS'isfriend'
p2210
I0
sS'secret'
p2211
V997c3770ea
p2212
sg21
S'http://farm4.static.flickr.com/3246/2723824569_997c3770ea.jpg'
p2213
sS'owner'
p2214
V90927002@N00
p2215
sS'id'
p2216
V2723824569
p2217
sbag4
(g5
g6
NtRp2218
(dp2219
S'isfamily'
p2220
I0
sS'title'
p2221
VColin teaches ET how to shotgun beer
p2222
sS'farm'
p2223
I4
sg13
g14
sS'ispublic'
p2224
I1
sS'server'
p2225
V3109
p2226
sS'isfriend'
p2227
I0
sS'secret'
p2228
V6d4d199c80
p2229
sg21
S'http://farm4.static.flickr.com/3109/2723824299_6d4d199c80.jpg'
p2230
sS'owner'
p2231
V90927002@N00
p2232
sS'id'
p2233
V2723824299
p2234
sbag4
(g5
g6
NtRp2235
(dp2236
S'isfamily'
p2237
I0
sS'title'
p2238
VIMG_4905.CR2
p2239
sS'farm'
p2240
I6
sg13
g14
sS'ispublic'
p2241
I1
sS'server'
p2242
V5301
p2243
sS'isfriend'
p2244
I0
sS'secret'
p2245
V5f8907b8c7
p2246
sg21
S'http://farm6.static.flickr.com/5301/5755335939_5f8907b8c7.jpg'
p2247
sS'owner'
p2248
V60086325@N03
p2249
sS'id'
p2250
V5755335939
p2251
sbag4
(g5
g6
NtRp2252
(dp2253
S'isfamily'
p2254
I0
sS'title'
p2255
VIMG_4857.CR2
p2256
sS'farm'
p2257
I6
sg13
g14
sS'ispublic'
p2258
I1
sS'server'
p2259
V5148
p2260
sS'isfriend'
p2261
I0
sS'secret'
p2262
V40f3d88dcf
p2263
sg21
S'http://farm6.static.flickr.com/5148/5755254265_40f3d88dcf.jpg'
p2264
sS'owner'
p2265
V60086325@N03
p2266
sS'id'
p2267
V5755254265
p2268
sbag4
(g5
g6
NtRp2269
(dp2270
S'isfamily'
p2271
I0
sS'title'
p2272
VIMG_4907.CR2
p2273
sS'farm'
p2274
I4
sg13
g14
sS'ispublic'
p2275
I1
sS'server'
p2276
V3474
p2277
sS'isfriend'
p2278
I0
sS'secret'
p2279
Vae73343936
p2280
sg21
S'http://farm4.static.flickr.com/3474/5755881404_ae73343936.jpg'
p2281
sS'owner'
p2282
V60086325@N03
p2283
sS'id'
p2284
V5755881404
p2285
sbag4
(g5
g6
NtRp2286
(dp2287
S'isfamily'
p2288
I0
sS'title'
p2289
VThe plane is filled with BEER!
p2290
sS'farm'
p2291
I1
sg13
g14
sS'ispublic'
p2292
I1
sS'server'
p2293
V58
p2294
sS'isfriend'
p2295
I0
sS'secret'
p2296
V24420a5e28
p2297
sg21
S'http://farm1.static.flickr.com/58/221956519_24420a5e28.jpg'
p2298
sS'owner'
p2299
V40731110@N00
p2300
sS'id'
p2301
V221956519
p2302
sbag4
(g5
g6
NtRp2303
(dp2304
S'isfamily'
p2305
I0
sS'title'
p2306
VIMG_4902.CR2
p2307
sS'farm'
p2308
I3
sg13
g14
sS'ispublic'
p2309
I1
sS'server'
p2310
V2474
p2311
sS'isfriend'
p2312
I0
sS'secret'
p2313
Vb803a1b7bc
p2314
sg21
S'http://farm3.static.flickr.com/2474/5755332475_b803a1b7bc.jpg'
p2315
sS'owner'
p2316
V60086325@N03
p2317
sS'id'
p2318
V5755332475
p2319
sbag4
(g5
g6
NtRp2320
(dp2321
S'isfamily'
p2322
I0
sS'title'
p2323
VDark Horse Brewery
p2324
sS'farm'
p2325
I7
sg13
g14
sS'ispublic'
p2326
I1
sS'server'
p2327
V6101
p2328
sS'isfriend'
p2329
I0
sS'secret'
p2330
Ve9022db44c
p2331
sg21
S'http://farm7.static.flickr.com/6101/6292924470_e9022db44c.jpg'
p2332
sS'owner'
p2333
V10751368@N00
p2334
sS'id'
p2335
V6292924470
p2336
sbag4
(g5
g6
NtRp2337
(dp2338
S'isfamily'
p2339
I0
sS'title'
p2340
VIMG_4854.CR2
p2341
sS'farm'
p2342
I3
sg13
g14
sS'ispublic'
p2343
I1
sS'server'
p2344
V2111
p2345
sS'isfriend'
p2346
I0
sS'secret'
p2347
Vb199a09cfb
p2348
sg21
S'http://farm3.static.flickr.com/2111/5755790722_b199a09cfb.jpg'
p2349
sS'owner'
p2350
V60086325@N03
p2351
sS'id'
p2352
V5755790722
p2353
sbag4
(g5
g6
NtRp2354
(dp2355
S'isfamily'
p2356
I0
sS'title'
p2357
VIMG_4903.CR2
p2358
sS'farm'
p2359
I4
sg13
g14
sS'ispublic'
p2360
I1
sS'server'
p2361
V3414
p2362
sS'isfriend'
p2363
I0
sS'secret'
p2364
Vebecd221be
p2365
sg21
S'http://farm4.static.flickr.com/3414/5755334463_ebecd221be.jpg'
p2366
sS'owner'
p2367
V60086325@N03
p2368
sS'id'
p2369
V5755334463
p2370
sbag4
(g5
g6
NtRp2371
(dp2372
S'isfamily'
p2373
I0
sS'title'
p2374
VIMG_4847.CR2
p2375
sS'farm'
p2376
I6
sg13
g14
sS'ispublic'
p2377
I1
sS'server'
p2378
V5022
p2379
sS'isfriend'
p2380
I0
sS'secret'
p2381
V7e3d3072ff
p2382
sg21
S'http://farm6.static.flickr.com/5022/5755229099_7e3d3072ff.jpg'
p2383
sS'owner'
p2384
V60086325@N03
p2385
sS'id'
p2386
V5755229099
p2387
sbag4
(g5
g6
NtRp2388
(dp2389
S'isfamily'
p2390
I0
sS'title'
p2391
VIMG_4855.CR2
p2392
sS'farm'
p2393
I6
sg13
g14
sS'ispublic'
p2394
I1
sS'server'
p2395
V5144
p2396
sS'isfriend'
p2397
I0
sS'secret'
p2398
V930a905872
p2399
sg21
S'http://farm6.static.flickr.com/5144/5755248907_930a905872.jpg'
p2400
sS'owner'
p2401
V60086325@N03
p2402
sS'id'
p2403
V5755248907
p2404
sbag4
(g5
g6
NtRp2405
(dp2406
S'isfamily'
p2407
I0
sS'title'
p2408
VShotguns & beer...what could possibly go wrong?
p2409
sS'farm'
p2410
I9
sg13
g14
sS'ispublic'
p2411
I1
sS'server'
p2412
V8805
p2413
sS'isfriend'
p2414
I0
sS'secret'
p2415
V486fd1d274
p2416
sg21
S'http://farm9.static.flickr.com/8805/28512720280_486fd1d274.jpg'
p2417
sS'owner'
p2418
V69295994@N00
p2419
sS'id'
p2420
V28512720280
p2421
sbag4
(g5
g6
NtRp2422
(dp2423
S'isfamily'
p2424
I0
sS'title'
p2425
VIMG_4851.CR2
p2426
sS'farm'
p2427
I4
sg13
g14
sS'ispublic'
p2428
I1
sS'server'
p2429
V3118
p2430
sS'isfriend'
p2431
I0
sS'secret'
p2432
V9cc212ee88
p2433
sg21
S'http://farm4.static.flickr.com/3118/5755238747_9cc212ee88.jpg'
p2434
sS'owner'
p2435
V60086325@N03
p2436
sS'id'
p2437
V5755238747
p2438
sbag4
(g5
g6
NtRp2439
(dp2440
S'isfamily'
p2441
I0
sS'title'
p2442
VIMG_4904.CR2
p2443
sS'farm'
p2444
I6
sg13
g14
sS'ispublic'
p2445
I1
sS'server'
p2446
V5268
p2447
sS'isfriend'
p2448
I0
sS'secret'
p2449
V61a68c5832
p2450
sg21
S'http://farm6.static.flickr.com/5268/5755879202_61a68c5832.jpg'
p2451
sS'owner'
p2452
V60086325@N03
p2453
sS'id'
p2454
V5755879202
p2455
sbag4
(g5
g6
NtRp2456
(dp2457
S'isfamily'
p2458
I0
sS'title'
p2459
VIMG_4901.CR2
p2460
sS'farm'
p2461
I6
sg13
g14
sS'ispublic'
p2462
I1
sS'server'
p2463
V5310
p2464
sS'isfriend'
p2465
I0
sS'secret'
p2466
V9c206e2cf3
p2467
sg21
S'http://farm6.static.flickr.com/5310/5755874198_9c206e2cf3.jpg'
p2468
sS'owner'
p2469
V60086325@N03
p2470
sS'id'
p2471
V5755874198
p2472
sbag4
(g5
g6
NtRp2473
(dp2474
S'isfamily'
p2475
I0
sS'title'
p2476
VIts Time To Shotgun Beer In Our New Giants Promotional Hats
p2477
sS'farm'
p2478
I5
sg13
g14
sS'ispublic'
p2479
I1
sS'server'
p2480
V4124
p2481
sS'isfriend'
p2482
I0
sS'secret'
p2483
V452f71b108
p2484
sg21
S'http://farm5.static.flickr.com/4124/4946047343_452f71b108.jpg'
p2485
sS'owner'
p2486
V9019654@N03
p2487
sS'id'
p2488
V4946047343
p2489
sbag4
(g5
g6
NtRp2490
(dp2491
S'isfamily'
p2492
I0
sS'title'
p2493
VIMG_4850.CR2
p2494
sS'farm'
p2495
I3
sg13
g14
sS'ispublic'
p2496
I1
sS'server'
p2497
V2702
p2498
sS'isfriend'
p2499
I0
sS'secret'
p2500
Vd3e852c8aa
p2501
sg21
S'http://farm3.static.flickr.com/2702/5755236311_d3e852c8aa.jpg'
p2502
sS'owner'
p2503
V60086325@N03
p2504
sS'id'
p2505
V5755236311
p2506
sbag4
(g5
g6
NtRp2507
(dp2508
S'isfamily'
p2509
I0
sS'title'
p2510
VIMG_4852.CR2
p2511
sS'farm'
p2512
I3
sg13
g14
sS'ispublic'
p2513
I1
sS'server'
p2514
V2221
p2515
sS'isfriend'
p2516
I0
sS'secret'
p2517
Vd2066a765f
p2518
sg21
S'http://farm3.static.flickr.com/2221/5755785826_d2066a765f.jpg'
p2519
sS'owner'
p2520
V60086325@N03
p2521
sS'id'
p2522
V5755785826
p2523
sbag4
(g5
g6
NtRp2524
(dp2525
S'isfamily'
p2526
I0
sS'title'
p2527
VIMG_4848.CR2
p2528
sS'farm'
p2529
I3
sg13
g14
sS'ispublic'
p2530
I1
sS'server'
p2531
V2582
p2532
sS'isfriend'
p2533
I0
sS'secret'
p2534
Vc4baf0291b
p2535
sg21
S'http://farm3.static.flickr.com/2582/5755775876_c4baf0291b.jpg'
p2536
sS'owner'
p2537
V60086325@N03
p2538
sS'id'
p2539
V5755775876
p2540
sbag4
(g5
g6
NtRp2541
(dp2542
S'isfamily'
p2543
I0
sS'title'
p2544
Vshotgun!!
p2545
sS'farm'
p2546
I5
sg13
g14
sS'ispublic'
p2547
I1
sS'server'
p2548
V4022
p2549
sS'isfriend'
p2550
I0
sS'secret'
p2551
V9eaa2d509d
p2552
sg21
S'http://farm5.static.flickr.com/4022/4640132063_9eaa2d509d.jpg'
p2553
sS'owner'
p2554
V48555943@N00
p2555
sS'id'
p2556
V4640132063
p2557
sbag4
(g5
g6
NtRp2558
(dp2559
S'isfamily'
p2560
I0
sS'title'
p2561
VIMG_4849.CR2
p2562
sS'farm'
p2563
I4
sg13
g14
sS'ispublic'
p2564
I1
sS'server'
p2565
V3653
p2566
sS'isfriend'
p2567
I0
sS'secret'
p2568
V646c4c3424
p2569
sg21
S'http://farm4.static.flickr.com/3653/5755233839_646c4c3424.jpg'
p2570
sS'owner'
p2571
V60086325@N03
p2572
sS'id'
p2573
V5755233839
p2574
sbag4
(g5
g6
NtRp2575
(dp2576
S'isfamily'
p2577
I0
sS'title'
p2578
V1656 Woody Woodcock "The All American Good 'Ol Boy" Print in Frame, "Bob 'Woody' Woodcock #119/1000" in corner, Featuring man w/ shotgun, beer & truck, Black & white - 29 1/2" x 24"
p2579
sS'farm'
p2580
I8
sg13
g14
sS'ispublic'
p2581
I1
sS'server'
p2582
V7133
p2583
sS'isfriend'
p2584
I0
sS'secret'
p2585
V885b32d53e
p2586
sg21
S'http://farm8.static.flickr.com/7133/13547317225_885b32d53e.jpg'
p2587
sS'owner'
p2588
V112968395@N06
p2589
sS'id'
p2590
V13547317225
p2591
sbag4
(g5
g6
NtRp2592
(dp2593
S'isfamily'
p2594
I0
sS'title'
p2595
VAliens
p2596
sS'farm'
p2597
I4
sg13
g14
sS'ispublic'
p2598
I1
sS'server'
p2599
V3316
p2600
sS'isfriend'
p2601
I0
sS'secret'
p2602
V98eda69ea7
p2603
sg21
S'http://farm4.static.flickr.com/3316/3276172224_98eda69ea7.jpg'
p2604
sS'owner'
p2605
V94722868@N00
p2606
sS'id'
p2607
V3276172224
p2608
sbag4
(g5
g6
NtRp2609
(dp2610
S'isfamily'
p2611
I0
sS'title'
p2612
VIMG_4856.CR2
p2613
sS'farm'
p2614
I4
sg13
g14
sS'ispublic'
p2615
I1
sS'server'
p2616
V3498
p2617
sS'isfriend'
p2618
I0
sS'secret'
p2619
Vfa852be4b5
p2620
sg21
S'http://farm4.static.flickr.com/3498/5755795846_fa852be4b5.jpg'
p2621
sS'owner'
p2622
V60086325@N03
p2623
sS'id'
p2624
V5755795846
p2625
sbag4
(g5
g6
NtRp2626
(dp2627
S'isfamily'
p2628
I0
sS'title'
p2629
VIMG_4853.CR2
p2630
sS'farm'
p2631
I3
sg13
g14
sS'ispublic'
p2632
I1
sS'server'
p2633
V2390
p2634
sS'isfriend'
p2635
I0
sS'secret'
p2636
V983a72de40
p2637
sg21
S'http://farm3.static.flickr.com/2390/5755243961_983a72de40.jpg'
p2638
sS'owner'
p2639
V60086325@N03
p2640
sS'id'
p2641
V5755243961
p2642
sbag4
(g5
g6
NtRp2643
(dp2644
S'isfamily'
p2645
I0
sS'title'
p2646
Vthe result.
p2647
sS'farm'
p2648
I2
sg13
g14
sS'ispublic'
p2649
I1
sS'server'
p2650
V1368
p2651
sS'isfriend'
p2652
I0
sS'secret'
p2653
V9880c51f31
p2654
sg21
S'http://farm2.static.flickr.com/1368/625111619_9880c51f31.jpg'
p2655
sS'owner'
p2656
V39587193@N00
p2657
sS'id'
p2658
V625111619
p2659
sbag4
(g5
g6
NtRp2660
(dp2661
S'isfamily'
p2662
I0
sS'title'
p2663
VIMG_4846.CR2
p2664
sS'farm'
p2665
I3
sg13
g14
sS'ispublic'
p2666
I1
sS'server'
p2667
V2672
p2668
sS'isfriend'
p2669
I0
sS'secret'
p2670
Va5a1a781f0
p2671
sg21
S'http://farm3.static.flickr.com/2672/5755771816_a5a1a781f0.jpg'
p2672
sS'owner'
p2673
V60086325@N03
p2674
sS'id'
p2675
V5755771816
p2676
sbag4
(g5
g6
NtRp2677
(dp2678
S'isfamily'
p2679
I0
sS'title'
p2680
Vlalalayne
p2681
sS'farm'
p2682
I2
sg13
g14
sS'ispublic'
p2683
I1
sS'server'
p2684
V1076
p2685
sS'isfriend'
p2686
I0
sS'secret'
p2687
Veee0bad80c
p2688
sg21
S'http://farm2.static.flickr.com/1076/833740719_eee0bad80c.jpg'
p2689
sS'owner'
p2690
V38446874@N00
p2691
sS'id'
p2692
V833740719
p2693
sbag4
(g5
g6
NtRp2694
(dp2695
S'isfamily'
p2696
I0
sS'title'
p2697
VSept 1st 2006 (88)
p2698
sS'farm'
p2699
I1
sg13
g14
sS'ispublic'
p2700
I1
sS'server'
p2701
V205
p2702
sS'isfriend'
p2703
I0
sS'secret'
p2704
V7e78318005
p2705
sg21
S'http://farm1.static.flickr.com/205/550823973_7e78318005.jpg'
p2706
sS'owner'
p2707
V8893702@N04
p2708
sS'id'
p2709
V550823973
p2710
sbag4
(g5
g6
NtRp2711
(dp2712
S'isfamily'
p2713
I0
sS'title'
p2714
V#Repost @liftmeupapparel \u30fb\u30fb\u30fb Shotgun Beer time pin now available at LIFTMEUPAPPAREL.ETSY.COM ---------------------------------------- -\u2693\ufe0fPatches, pins, shirts and more available on Etsy! -\U0001f449LINK IN BIO -----------------------------------
p2715
sS'farm'
p2716
I3
sg13
g14
sS'ispublic'
p2717
I1
sS'server'
p2718
V2883
p2719
sS'isfriend'
p2720
I0
sS'secret'
p2721
V503e54dcfb
p2722
sg21
S'http://farm3.static.flickr.com/2883/33718829536_503e54dcfb.jpg'
p2723
sS'owner'
p2724
V63285839@N00
p2725
sS'id'
p2726
V33718829536
p2727
sbag4
(g5
g6
NtRp2728
(dp2729
S'isfamily'
p2730
I0
sS'title'
p2731
Vshotgun3
p2732
sS'farm'
p2733
I1
sg13
g14
sS'ispublic'
p2734
I1
sS'server'
p2735
V30
p2736
sS'isfriend'
p2737
I0
sS'secret'
p2738
Vbd458955f7
p2739
sg21
S'http://farm1.static.flickr.com/30/37625943_bd458955f7.jpg'
p2740
sS'owner'
p2741
V26811856@N00
p2742
sS'id'
p2743
V37625943
p2744
sbag4
(g5
g6
NtRp2745
(dp2746
S'isfamily'
p2747
I0
sS'title'
p2748
V
sS'farm'
p2749
I2
sg13
g14
sS'ispublic'
p2750
I1
sS'server'
p2751
V1139
p2752
sS'isfriend'
p2753
I0
sS'secret'
p2754
Vc77e149685
p2755
sg21
S'http://farm2.static.flickr.com/1139/871079396_c77e149685.jpg'
p2756
sS'owner'
p2757
V37561252@N00
p2758
sS'id'
p2759
V871079396
p2760
sbag4
(g5
g6
NtRp2761
(dp2762
S'isfamily'
p2763
I0
sS'title'
p2764
VSlugger's
p2765
sS'farm'
p2766
I1
sg13
g14
sS'ispublic'
p2767
I1
sS'server'
p2768
V96
p2769
sS'isfriend'
p2770
I0
sS'secret'
p2771
V55bfe44923
p2772
sg21
S'http://farm1.static.flickr.com/96/277085892_55bfe44923.jpg'
p2773
sS'owner'
p2774
V19506902@N00
p2775
sS'id'
p2776
V277085892
p2777
sbag4
(g5
g6
NtRp2778
(dp2779
S'isfamily'
p2780
I0
sS'title'
p2781
VLower Buffalo River 2016
p2782
sS'farm'
p2783
I2
sg13
g14
sS'ispublic'
p2784
I1
sS'server'
p2785
V1464
p2786
sS'isfriend'
p2787
I0
sS'secret'
p2788
V474b534a5b
p2789
sg21
S'http://farm2.static.flickr.com/1464/24959926332_474b534a5b.jpg'
p2790
sS'owner'
p2791
V36248982@N05
p2792
sS'id'
p2793
V24959926332
p2794
sbag4
(g5
g6
NtRp2795
(dp2796
S'isfamily'
p2797
I0
sS'title'
p2798
VWhere else can you get a cooler, ice, beer... And high speed shotgun shells? #Walmart #3gun ##3gunnation #shotgun #beer #onestopshop
p2799
sS'farm'
p2800
I1
sg13
g14
sS'ispublic'
p2801
I1
sS'server'
p2802
V441
p2803
sS'isfriend'
p2804
I0
sS'secret'
p2805
Vc0c6093c7b
p2806
sg21
S'http://farm1.static.flickr.com/441/18930116312_c0c6093c7b.jpg'
p2807
sS'owner'
p2808
V44559103@N02
p2809
sS'id'
p2810
V18930116312
p2811
sbag4
(g5
g6
NtRp2812
(dp2813
S'isfamily'
p2814
I0
sS'title'
p2815
VSleepies shotgun beers
p2816
sS'farm'
p2817
I5
sg13
g14
sS'ispublic'
p2818
I1
sS'server'
p2819
V4063
p2820
sS'isfriend'
p2821
I0
sS'secret'
p2822
Vc1e841cee4
p2823
sg21
S'http://farm5.static.flickr.com/4063/4396433939_c1e841cee4.jpg'
p2824
sS'owner'
p2825
V8922518@N07
p2826
sS'id'
p2827
V4396433939
p2828
sbag4
(g5
g6
NtRp2829
(dp2830
S'isfamily'
p2831
I0
sS'title'
p2832
VCoCo's Birthday
p2833
sS'farm'
p2834
I3
sg13
g14
sS'ispublic'
p2835
I1
sS'server'
p2836
V2666
p2837
sS'isfriend'
p2838
I0
sS'secret'
p2839
V2d2208d760
p2840
sg21
S'http://farm3.static.flickr.com/2666/3709970795_2d2208d760.jpg'
p2841
sS'owner'
p2842
V28836461@N00
p2843
sS'id'
p2844
V3709970795
p2845
sbag4
(g5
g6
NtRp2846
(dp2847
S'isfamily'
p2848
I0
sS'title'
p2849
VStarship Putt Putt
p2850
sS'farm'
p2851
I4
sg13
g14
sS'ispublic'
p2852
I1
sS'server'
p2853
V3473
p2854
sS'isfriend'
p2855
I0
sS'secret'
p2856
Ve8d9f98a3f
p2857
sg21
S'http://farm4.static.flickr.com/3473/3275351063_e8d9f98a3f.jpg'
p2858
sS'owner'
p2859
V94722868@N00
p2860
sS'id'
p2861
V3275351063
p2862
sbag4
(g5
g6
NtRp2863
(dp2864
S'isfamily'
p2865
I0
sS'title'
p2866
Vcreepy
p2867
sS'farm'
p2868
I4
sg13
g14
sS'ispublic'
p2869
I1
sS'server'
p2870
V3384
p2871
sS'isfriend'
p2872
I0
sS'secret'
p2873
V00c5813e70
p2874
sg21
S'http://farm4.static.flickr.com/3384/3275350669_00c5813e70.jpg'
p2875
sS'owner'
p2876
V94722868@N00
p2877
sS'id'
p2878
V3275350669
p2879
sbag4
(g5
g6
NtRp2880
(dp2881
S'isfamily'
p2882
I0
sS'title'
p2883
VShotgun beer
p2884
sS'farm'
p2885
I4
sg13
g14
sS'ispublic'
p2886
I1
sS'server'
p2887
V3337
p2888
sS'isfriend'
p2889
I0
sS'secret'
p2890
V22b6b5edef
p2891
sg21
S'http://farm4.static.flickr.com/3337/3261698065_22b6b5edef.jpg'
p2892
sS'owner'
p2893
V31684174@N00
p2894
sS'id'
p2895
V3261698065
p2896
sbag4
(g5
g6
NtRp2897
(dp2898
S'isfamily'
p2899
I0
sS'title'
p2900
Vbrett shotgun beer nick man camp
p2901
sS'farm'
p2902
I4
sg13
g14
sS'ispublic'
p2903
I1
sS'server'
p2904
V3144
p2905
sS'isfriend'
p2906
I0
sS'secret'
p2907
V3e4f53036c
p2908
sg21
S'http://farm4.static.flickr.com/3144/2682833175_3e4f53036c.jpg'
p2909
sS'owner'
p2910
V9475047@N03
p2911
sS'id'
p2912
V2682833175
p2913
sbag4
(g5
g6
NtRp2914
(dp2915
S'isfamily'
p2916
I0
sS'title'
p2917
VPreparing to shotgun beers
p2918
sS'farm'
p2919
I4
sg13
g14
sS'ispublic'
p2920
I1
sS'server'
p2921
V3098
p2922
sS'isfriend'
p2923
I0
sS'secret'
p2924
V6951410b2d
p2925
sg21
S'http://farm4.static.flickr.com/3098/2569884852_6951410b2d.jpg'
p2926
sS'owner'
p2927
V15413757@N00
p2928
sS'id'
p2929
V2569884852
p2930
sbas.