(dp1
S'drunk+frat'
p2
(lp3
ccopy_reg
_reconstructor
p4
(cmmfeat.miner.flickr
FlickrResult
p5
c__builtin__
object
p6
NtRp7
(dp8
S'isfamily'
p9
I0
sS'title'
p10
VStupid Drunk Frat Guy Moment
p11
sS'farm'
p12
I1
sS'format'
p13
S'image/jpg'
p14
sS'ispublic'
p15
I1
sS'server'
p16
V19
p17
sS'isfriend'
p18
I0
sS'secret'
p19
V85a1a84208
p20
sS'url'
p21
S'http://farm1.static.flickr.com/19/109499127_85a1a84208.jpg'
p22
sS'owner'
p23
V43961584@N00
p24
sS'id'
p25
V109499127
p26
sbag4
(g5
g6
NtRp27
(dp28
S'isfamily'
p29
I0
sS'title'
p30
VCrazy 088
p31
sS'farm'
p32
I3
sg13
g14
sS'ispublic'
p33
I1
sS'server'
p34
V2252
p35
sS'isfriend'
p36
I0
sS'secret'
p37
V1661b9d691
p38
sg21
S'http://farm3.static.flickr.com/2252/2065253894_1661b9d691.jpg'
p39
sS'owner'
p40
V88138159@N00
p41
sS'id'
p42
V2065253894
p43
sbag4
(g5
g6
NtRp44
(dp45
S'isfamily'
p46
I0
sS'title'
p47
Vdrunk Frat
p48
sS'farm'
p49
I3
sg13
g14
sS'ispublic'
p50
I1
sS'server'
p51
V2669
p52
sS'isfriend'
p53
I0
sS'secret'
p54
V610fc86e70
p55
sg21
S'http://farm3.static.flickr.com/2669/3757343977_610fc86e70.jpg'
p56
sS'owner'
p57
V38887489@N07
p58
sS'id'
p59
V3757343977
p60
sbag4
(g5
g6
NtRp61
(dp62
S'isfamily'
p63
I0
sS'title'
p64
VDSC_0218
p65
sS'farm'
p66
I4
sg13
g14
sS'ispublic'
p67
I1
sS'server'
p68
V3610
p69
sS'isfriend'
p70
I0
sS'secret'
p71
V5f43ec6b68
p72
sg21
S'http://farm4.static.flickr.com/3610/3473082519_5f43ec6b68.jpg'
p73
sS'owner'
p74
V32965292@N08
p75
sS'id'
p76
V3473082519
p77
sbag4
(g5
g6
NtRp78
(dp79
S'isfamily'
p80
I0
sS'title'
p81
VDrunk Frat Boys
p82
sS'farm'
p83
I3
sg13
g14
sS'ispublic'
p84
I1
sS'server'
p85
V2023
p86
sS'isfriend'
p87
I0
sS'secret'
p88
Vc4b0a460bc
p89
sg21
S'http://farm3.static.flickr.com/2023/2506894823_c4b0a460bc.jpg'
p90
sS'owner'
p91
V26706030@N00
p92
sS'id'
p93
V2506894823
p94
sbag4
(g5
g6
NtRp95
(dp96
S'isfamily'
p97
I0
sS'title'
p98
Vdrunk frat boys
p99
sS'farm'
p100
I3
sg13
g14
sS'ispublic'
p101
I1
sS'server'
p102
V2324
p103
sS'isfriend'
p104
I0
sS'secret'
p105
V6b4cbbcb93
p106
sg21
S'http://farm3.static.flickr.com/2324/2621007149_6b4cbbcb93.jpg'
p107
sS'owner'
p108
V57581599@N00
p109
sS'id'
p110
V2621007149
p111
sbag4
(g5
g6
NtRp112
(dp113
S'isfamily'
p114
I0
sS'title'
p115
VWoodberry - Drunk frat boy
p116
sS'farm'
p117
I3
sg13
g14
sS'ispublic'
p118
I1
sS'server'
p119
V2282
p120
sS'isfriend'
p121
I0
sS'secret'
p122
Vca91a799ee
p123
sg21
S'http://farm3.static.flickr.com/2282/2103483997_ca91a799ee.jpg'
p124
sS'owner'
p125
V79865753@N00
p126
sS'id'
p127
V2103483997
p128
sbag4
(g5
g6
NtRp129
(dp130
S'isfamily'
p131
I0
sS'title'
p132
VMGM Grand in Las Vegas, NV
p133
sS'farm'
p134
I2
sg13
g14
sS'ispublic'
p135
I1
sS'server'
p136
V1204
p137
sS'isfriend'
p138
I0
sS'secret'
p139
Vded5442465
p140
sg21
S'http://farm2.static.flickr.com/1204/528128587_ded5442465.jpg'
p141
sS'owner'
p142
V41591594@N00
p143
sS'id'
p144
V528128587
p145
sbag4
(g5
g6
NtRp146
(dp147
S'isfamily'
p148
I0
sS'title'
p149
VDrunk Frat Boy
p150
sS'farm'
p151
I1
sg13
g14
sS'ispublic'
p152
I1
sS'server'
p153
V47
p154
sS'isfriend'
p155
I0
sS'secret'
p156
Vc0004743af
p157
sg21
S'http://farm1.static.flickr.com/47/182849068_c0004743af.jpg'
p158
sS'owner'
p159
V56034612@N00
p160
sS'id'
p161
V182849068
p162
sbag4
(g5
g6
NtRp163
(dp164
S'isfamily'
p165
I0
sS'title'
p166
VA Drunk Frat
p167
sS'farm'
p168
I4
sg13
g14
sS'ispublic'
p169
I1
sS'server'
p170
V3461
p171
sS'isfriend'
p172
I0
sS'secret'
p173
Vd94ba5369b
p174
sg21
S'http://farm4.static.flickr.com/3461/3819023203_d94ba5369b.jpg'
p175
sS'owner'
p176
V14183017@N00
p177
sS'id'
p178
V3819023203
p179
sbag4
(g5
g6
NtRp180
(dp181
S'isfamily'
p182
I0
sS'title'
p183
Vdrunk frat bear
p184
sS'farm'
p185
I4
sg13
g14
sS'ispublic'
p186
I1
sS'server'
p187
V3628
p188
sS'isfriend'
p189
I0
sS'secret'
p190
Vd24f480c6d
p191
sg21
S'http://farm4.static.flickr.com/3628/3374753486_d24f480c6d.jpg'
p192
sS'owner'
p193
V27393066@N03
p194
sS'id'
p195
V3374753486
p196
sbag4
(g5
g6
NtRp197
(dp198
S'isfamily'
p199
I0
sS'title'
p200
VDrunk frat boy
p201
sS'farm'
p202
I1
sg13
g14
sS'ispublic'
p203
I1
sS'server'
p204
V40
p205
sS'isfriend'
p206
I0
sS'secret'
p207
V2af4386dde
p208
sg21
S'http://farm1.static.flickr.com/40/99235288_2af4386dde.jpg'
p209
sS'owner'
p210
V10329338@N00
p211
sS'id'
p212
V99235288
p213
sbag4
(g5
g6
NtRp214
(dp215
S'isfamily'
p216
I0
sS'title'
p217
VHey ho lets go
p218
sS'farm'
p219
I8
sg13
g14
sS'ispublic'
p220
I1
sS'server'
p221
V7140
p222
sS'isfriend'
p223
I0
sS'secret'
p224
V258fa9223a
p225
sg21
S'http://farm8.static.flickr.com/7140/6978380544_258fa9223a.jpg'
p226
sS'owner'
p227
V38834306@N00
p228
sS'id'
p229
V6978380544
p230
sbag4
(g5
g6
NtRp231
(dp232
S'isfamily'
p233
I0
sS'title'
p234
VDrunk Frat Boy Pose
p235
sS'farm'
p236
I1
sg13
g14
sS'ispublic'
p237
I1
sS'server'
p238
V1
sS'isfriend'
p239
I0
sS'secret'
p240
Vb764f2dd8f
p241
sg21
S'http://farm1.static.flickr.com/1/128137967_b764f2dd8f.jpg'
p242
sS'owner'
p243
V45681922@N00
p244
sS'id'
p245
V128137967
p246
sbag4
(g5
g6
NtRp247
(dp248
S'isfamily'
p249
I0
sS'title'
p250
VDSC_0102
p251
sS'farm'
p252
I4
sg13
g14
sS'ispublic'
p253
I1
sS'server'
p254
V3384
p255
sS'isfriend'
p256
I0
sS'secret'
p257
Vd1627c471a
p258
sg21
S'http://farm4.static.flickr.com/3384/3473936660_d1627c471a.jpg'
p259
sS'owner'
p260
V32965292@N08
p261
sS'id'
p262
V3473936660
p263
sbag4
(g5
g6
NtRp264
(dp265
S'isfamily'
p266
I0
sS'title'
p267
VDSC_0216
p268
sS'farm'
p269
I4
sg13
g14
sS'ispublic'
p270
I1
sS'server'
p271
V3589
p272
sS'isfriend'
p273
I0
sS'secret'
p274
V40deec5a02
p275
sg21
S'http://farm4.static.flickr.com/3589/3473083465_40deec5a02.jpg'
p276
sS'owner'
p277
V32965292@N08
p278
sS'id'
p279
V3473083465
p280
sbag4
(g5
g6
NtRp281
(dp282
S'isfamily'
p283
I0
sS'title'
p284
VDSC_0098
p285
sS'farm'
p286
I4
sg13
g14
sS'ispublic'
p287
I1
sS'server'
p288
V3590
p289
sS'isfriend'
p290
I0
sS'secret'
p291
V38107a9c01
p292
sg21
S'http://farm4.static.flickr.com/3590/3473126101_38107a9c01.jpg'
p293
sS'owner'
p294
V32965292@N08
p295
sS'id'
p296
V3473126101
p297
sbag4
(g5
g6
NtRp298
(dp299
S'isfamily'
p300
I0
sS'title'
p301
VDSC_0035
p302
sS'farm'
p303
I4
sg13
g14
sS'ispublic'
p304
I1
sS'server'
p305
V3375
p306
sS'isfriend'
p307
I0
sS'secret'
p308
V95c5a47d2a
p309
sg21
S'http://farm4.static.flickr.com/3375/3473096351_95c5a47d2a.jpg'
p310
sS'owner'
p311
V32965292@N08
p312
sS'id'
p313
V3473096351
p314
sbag4
(g5
g6
NtRp315
(dp316
S'isfamily'
p317
I0
sS'title'
p318
VRent
p319
sS'farm'
p320
I5
sg13
g14
sS'ispublic'
p321
I1
sS'server'
p322
V4056
p323
sS'isfriend'
p324
I0
sS'secret'
p325
Vc99797d657
p326
sg21
S'http://farm5.static.flickr.com/4056/4703189664_c99797d657.jpg'
p327
sS'owner'
p328
V8470926@N03
p329
sS'id'
p330
V4703189664
p331
sbag4
(g5
g6
NtRp332
(dp333
S'isfamily'
p334
I0
sS'title'
p335
VBourbon Street, New Orleans.  Not sure if you're the type of person that loooooves seeing drunk frat monkeys fight, but if so, hoooo-doggy is this the video for you!
p336
sS'farm'
p337
I4
sg13
g14
sS'ispublic'
p338
I1
sS'server'
p339
V3603
p340
sS'isfriend'
p341
I0
sS'secret'
p342
Vb371ee1ec9
p343
sg21
S'http://farm4.static.flickr.com/3603/3407986901_b371ee1ec9.jpg'
p344
sS'owner'
p345
V77725780@N00
p346
sS'id'
p347
V3407986901
p348
sbag4
(g5
g6
NtRp349
(dp350
S'isfamily'
p351
I0
sS'title'
p352
VDSC_0217
p353
sS'farm'
p354
I4
sg13
g14
sS'ispublic'
p355
I1
sS'server'
p356
V3623
p357
sS'isfriend'
p358
I0
sS'secret'
p359
Va7216b5ed2
p360
sg21
S'http://farm4.static.flickr.com/3623/3473890746_a7216b5ed2.jpg'
p361
sS'owner'
p362
V32965292@N08
p363
sS'id'
p364
V3473890746
p365
sbag4
(g5
g6
NtRp366
(dp367
S'isfamily'
p368
I0
sS'title'
p369
VDSC_0219
p370
sS'farm'
p371
I4
sg13
g14
sS'ispublic'
p372
I1
sS'server'
p373
V3332
p374
sS'isfriend'
p375
I0
sS'secret'
p376
Vb40cb63b40
p377
sg21
S'http://farm4.static.flickr.com/3332/3473085967_b40cb63b40.jpg'
p378
sS'owner'
p379
V32965292@N08
p380
sS'id'
p381
V3473085967
p382
sbag4
(g5
g6
NtRp383
(dp384
S'isfamily'
p385
I0
sS'title'
p386
VDSC_0106
p387
sS'farm'
p388
I4
sg13
g14
sS'ispublic'
p389
I1
sS'server'
p390
V3310
p391
sS'isfriend'
p392
I0
sS'secret'
p393
Vede1fb58a8
p394
sg21
S'http://farm4.static.flickr.com/3310/3473938164_ede1fb58a8.jpg'
p395
sS'owner'
p396
V32965292@N08
p397
sS'id'
p398
V3473938164
p399
sbag4
(g5
g6
NtRp400
(dp401
S'isfamily'
p402
I0
sS'title'
p403
VDSC_0087
p404
sS'farm'
p405
I4
sg13
g14
sS'ispublic'
p406
I1
sS'server'
p407
V3570
p408
sS'isfriend'
p409
I0
sS'secret'
p410
Vd367a6fae9
p411
sg21
S'http://farm4.static.flickr.com/3570/3473931970_d367a6fae9.jpg'
p412
sS'owner'
p413
V32965292@N08
p414
sS'id'
p415
V3473931970
p416
sbag4
(g5
g6
NtRp417
(dp418
S'isfamily'
p419
I0
sS'title'
p420
VDSC_0086
p421
sS'farm'
p422
I4
sg13
g14
sS'ispublic'
p423
I1
sS'server'
p424
V3411
p425
sS'isfriend'
p426
I0
sS'secret'
p427
V654708793c
p428
sg21
S'http://farm4.static.flickr.com/3411/3473931426_654708793c.jpg'
p429
sS'owner'
p430
V32965292@N08
p431
sS'id'
p432
V3473931426
p433
sbag4
(g5
g6
NtRp434
(dp435
S'isfamily'
p436
I0
sS'title'
p437
VDSC_0010
p438
sS'farm'
p439
I4
sg13
g14
sS'ispublic'
p440
I1
sS'server'
p441
V3582
p442
sS'isfriend'
p443
I0
sS'secret'
p444
V730694982f
p445
sg21
S'http://farm4.static.flickr.com/3582/3473087563_730694982f.jpg'
p446
sS'owner'
p447
V32965292@N08
p448
sS'id'
p449
V3473087563
p450
sbag4
(g5
g6
NtRp451
(dp452
S'isfamily'
p453
I0
sS'title'
p454
VDSC_0021
p455
sS'farm'
p456
I4
sg13
g14
sS'ispublic'
p457
I1
sS'server'
p458
V3606
p459
sS'isfriend'
p460
I0
sS'secret'
p461
V76371293f6
p462
sg21
S'http://farm4.static.flickr.com/3606/3473090963_76371293f6.jpg'
p463
sS'owner'
p464
V32965292@N08
p465
sS'id'
p466
V3473090963
p467
sbag4
(g5
g6
NtRp468
(dp469
S'isfamily'
p470
I0
sS'title'
p471
VDSC_0037
p472
sS'farm'
p473
I4
sg13
g14
sS'ispublic'
p474
I1
sS'server'
p475
V3660
p476
sS'isfriend'
p477
I0
sS'secret'
p478
V9b1849816e
p479
sg21
S'http://farm4.static.flickr.com/3660/3473906672_9b1849816e.jpg'
p480
sS'owner'
p481
V32965292@N08
p482
sS'id'
p483
V3473906672
p484
sbag4
(g5
g6
NtRp485
(dp486
S'isfamily'
p487
I0
sS'title'
p488
VDSC_0077
p489
sS'farm'
p490
I4
sg13
g14
sS'ispublic'
p491
I1
sS'server'
p492
V3627
p493
sS'isfriend'
p494
I0
sS'secret'
p495
V4ef805646e
p496
sg21
S'http://farm4.static.flickr.com/3627/3473117137_4ef805646e.jpg'
p497
sS'owner'
p498
V32965292@N08
p499
sS'id'
p500
V3473117137
p501
sbag4
(g5
g6
NtRp502
(dp503
S'isfamily'
p504
I0
sS'title'
p505
VWayne Reynolds and Elizabeth Neave (at left), standing near beer drinking Frat event, the University of Newcastle, Australia
p506
sS'farm'
p507
I2
sg13
g14
sS'ispublic'
p508
I1
sS'server'
p509
V1340
p510
sS'isfriend'
p511
I0
sS'secret'
p512
V37078fc8c4
p513
sg21
S'http://farm2.static.flickr.com/1340/5122021623_37078fc8c4.jpg'
p514
sS'owner'
p515
V8571926@N06
p516
sS'id'
p517
V5122021623
p518
sbag4
(g5
g6
NtRp519
(dp520
S'isfamily'
p521
I0
sS'title'
p522
VDSC_0067
p523
sS'farm'
p524
I4
sg13
g14
sS'ispublic'
p525
I1
sS'server'
p526
V3628
p527
sS'isfriend'
p528
I0
sS'secret'
p529
V7f7d57d37c
p530
sg21
S'http://farm4.static.flickr.com/3628/3473923684_7f7d57d37c.jpg'
p531
sS'owner'
p532
V32965292@N08
p533
sS'id'
p534
V3473923684
p535
sbag4
(g5
g6
NtRp536
(dp537
S'isfamily'
p538
I0
sS'title'
p539
VDSC_0129
p540
sS'farm'
p541
I4
sg13
g14
sS'ispublic'
p542
I1
sS'server'
p543
V3607
p544
sS'isfriend'
p545
I0
sS'secret'
p546
Ve73dd84dcd
p547
sg21
S'http://farm4.static.flickr.com/3607/3473138537_e73dd84dcd.jpg'
p548
sS'owner'
p549
V32965292@N08
p550
sS'id'
p551
V3473138537
p552
sbag4
(g5
g6
NtRp553
(dp554
S'isfamily'
p555
I0
sS'title'
p556
VDSC_0108
p557
sS'farm'
p558
I4
sg13
g14
sS'ispublic'
p559
I1
sS'server'
p560
V3378
p561
sS'isfriend'
p562
I0
sS'secret'
p563
V02538b4a61
p564
sg21
S'http://farm4.static.flickr.com/3378/3473132971_02538b4a61.jpg'
p565
sS'owner'
p566
V32965292@N08
p567
sS'id'
p568
V3473132971
p569
sbag4
(g5
g6
NtRp570
(dp571
S'isfamily'
p572
I0
sS'title'
p573
VDSC_0130
p574
sS'farm'
p575
I4
sg13
g14
sS'ispublic'
p576
I1
sS'server'
p577
V3383
p578
sS'isfriend'
p579
I0
sS'secret'
p580
V443048cd4b
p581
sg21
S'http://farm4.static.flickr.com/3383/3473947624_443048cd4b.jpg'
p582
sS'owner'
p583
V32965292@N08
p584
sS'id'
p585
V3473947624
p586
sbag4
(g5
g6
NtRp587
(dp588
S'isfamily'
p589
I0
sS'title'
p590
VDSC_0030
p591
sS'farm'
p592
I4
sg13
g14
sS'ispublic'
p593
I1
sS'server'
p594
V3406
p595
sS'isfriend'
p596
I0
sS'secret'
p597
V8766231bce
p598
sg21
S'http://farm4.static.flickr.com/3406/3473091779_8766231bce.jpg'
p599
sS'owner'
p600
V32965292@N08
p601
sS'id'
p602
V3473091779
p603
sbag4
(g5
g6
NtRp604
(dp605
S'isfamily'
p606
I0
sS'title'
p607
VDSC_0088
p608
sS'farm'
p609
I4
sg13
g14
sS'ispublic'
p610
I1
sS'server'
p611
V3620
p612
sS'isfriend'
p613
I0
sS'secret'
p614
V700d7ab6b5
p615
sg21
S'http://farm4.static.flickr.com/3620/3473124857_700d7ab6b5.jpg'
p616
sS'owner'
p617
V32965292@N08
p618
sS'id'
p619
V3473124857
p620
sbag4
(g5
g6
NtRp621
(dp622
S'isfamily'
p623
I0
sS'title'
p624
VDSC_0128
p625
sS'farm'
p626
I4
sg13
g14
sS'ispublic'
p627
I1
sS'server'
p628
V3373
p629
sS'isfriend'
p630
I0
sS'secret'
p631
V2059cbd5d2
p632
sg21
S'http://farm4.static.flickr.com/3373/3473140223_2059cbd5d2.jpg'
p633
sS'owner'
p634
V32965292@N08
p635
sS'id'
p636
V3473140223
p637
sbag4
(g5
g6
NtRp638
(dp639
S'isfamily'
p640
I0
sS'title'
p641
VDSC_0124
p642
sS'farm'
p643
I4
sg13
g14
sS'ispublic'
p644
I1
sS'server'
p645
V3385
p646
sS'isfriend'
p647
I0
sS'secret'
p648
Vf3d02c1ffd
p649
sg21
S'http://farm4.static.flickr.com/3385/3473142297_f3d02c1ffd.jpg'
p650
sS'owner'
p651
V32965292@N08
p652
sS'id'
p653
V3473142297
p654
sbag4
(g5
g6
NtRp655
(dp656
S'isfamily'
p657
I0
sS'title'
p658
VCharacters I want to see in the MCU (and how and who)
p659
sS'farm'
p660
I3
sg13
g14
sS'ispublic'
p661
I1
sS'server'
p662
V2809
p663
sS'isfriend'
p664
I0
sS'secret'
p665
Vfb81d8dd5d
p666
sg21
S'http://farm3.static.flickr.com/2809/34107028116_fb81d8dd5d.jpg'
p667
sS'owner'
p668
V145873180@N02
p669
sS'id'
p670
V34107028116
p671
sbag4
(g5
g6
NtRp672
(dp673
S'isfamily'
p674
I0
sS'title'
p675
VDSC_0090
p676
sS'farm'
p677
I4
sg13
g14
sS'ispublic'
p678
I1
sS'server'
p679
V3588
p680
sS'isfriend'
p681
I0
sS'secret'
p682
V0e53796291
p683
sg21
S'http://farm4.static.flickr.com/3588/3473935712_0e53796291.jpg'
p684
sS'owner'
p685
V32965292@N08
p686
sS'id'
p687
V3473935712
p688
sbag4
(g5
g6
NtRp689
(dp690
S'isfamily'
p691
I0
sS'title'
p692
VDSC_0107
p693
sS'farm'
p694
I4
sg13
g14
sS'ispublic'
p695
I1
sS'server'
p696
V3415
p697
sS'isfriend'
p698
I0
sS'secret'
p699
V8f98c736ee
p700
sg21
S'http://farm4.static.flickr.com/3415/3473939904_8f98c736ee.jpg'
p701
sS'owner'
p702
V32965292@N08
p703
sS'id'
p704
V3473939904
p705
sbag4
(g5
g6
NtRp706
(dp707
S'isfamily'
p708
I0
sS'title'
p709
VDSC_0015
p710
sS'farm'
p711
I4
sg13
g14
sS'ispublic'
p712
I1
sS'server'
p713
V3338
p714
sS'isfriend'
p715
I0
sS'secret'
p716
Vbe535de7d8
p717
sg21
S'http://farm4.static.flickr.com/3338/3473089981_be535de7d8.jpg'
p718
sS'owner'
p719
V32965292@N08
p720
sS'id'
p721
V3473089981
p722
sbag4
(g5
g6
NtRp723
(dp724
S'isfamily'
p725
I0
sS'title'
p726
VDSC_0123
p727
sS'farm'
p728
I4
sg13
g14
sS'ispublic'
p729
I1
sS'server'
p730
V3606
p731
sS'isfriend'
p732
I0
sS'secret'
p733
Vf44c907c0e
p734
sg21
S'http://farm4.static.flickr.com/3606/3473143843_f44c907c0e.jpg'
p735
sS'owner'
p736
V32965292@N08
p737
sS'id'
p738
V3473143843
p739
sbag4
(g5
g6
NtRp740
(dp741
S'isfamily'
p742
I0
sS'title'
p743
V3ll PartyThruCollege
p744
sS'farm'
p745
I4
sg13
g14
sS'ispublic'
p746
I1
sS'server'
p747
V3478
p748
sS'isfriend'
p749
I0
sS'secret'
p750
Vd150317388
p751
sg21
S'http://farm4.static.flickr.com/3478/4035931049_d150317388.jpg'
p752
sS'owner'
p753
V43878355@N07
p754
sS'id'
p755
V4035931049
p756
sbag4
(g5
g6
NtRp757
(dp758
S'isfamily'
p759
I0
sS'title'
p760
VDSC_0225
p761
sS'farm'
p762
I4
sg13
g14
sS'ispublic'
p763
I1
sS'server'
p764
V3312
p765
sS'isfriend'
p766
I0
sS'secret'
p767
Vd4638d131e
p768
sg21
S'http://farm4.static.flickr.com/3312/3473893596_d4638d131e.jpg'
p769
sS'owner'
p770
V32965292@N08
p771
sS'id'
p772
V3473893596
p773
sbag4
(g5
g6
NtRp774
(dp775
S'isfamily'
p776
I0
sS'title'
p777
VDSC_0005
p778
sS'farm'
p779
I4
sg13
g14
sS'ispublic'
p780
I1
sS'server'
p781
V3542
p782
sS'isfriend'
p783
I0
sS'secret'
p784
Vb99ccce67e
p785
sg21
S'http://farm4.static.flickr.com/3542/3473895818_b99ccce67e.jpg'
p786
sS'owner'
p787
V32965292@N08
p788
sS'id'
p789
V3473895818
p790
sbag4
(g5
g6
NtRp791
(dp792
S'isfamily'
p793
I0
sS'title'
p794
VRAWWWK
p795
sS'farm'
p796
I1
sg13
g14
sS'ispublic'
p797
I1
sS'server'
p798
V47
p799
sS'isfriend'
p800
I0
sS'secret'
p801
V9446c3e68d
p802
sg21
S'http://farm1.static.flickr.com/47/144460674_9446c3e68d.jpg'
p803
sS'owner'
p804
V23806189@N00
p805
sS'id'
p806
V144460674
p807
sbag4
(g5
g6
NtRp808
(dp809
S'isfamily'
p810
I0
sS'title'
p811
VDSC_0074
p812
sS'farm'
p813
I4
sg13
g14
sS'ispublic'
p814
I1
sS'server'
p815
V3332
p816
sS'isfriend'
p817
I0
sS'secret'
p818
V74c992c470
p819
sg21
S'http://farm4.static.flickr.com/3332/3473924658_74c992c470.jpg'
p820
sS'owner'
p821
V32965292@N08
p822
sS'id'
p823
V3473924658
p824
sbag4
(g5
g6
NtRp825
(dp826
S'isfamily'
p827
I0
sS'title'
p828
VDSC_0081
p829
sS'farm'
p830
I4
sg13
g14
sS'ispublic'
p831
I1
sS'server'
p832
V3401
p833
sS'isfriend'
p834
I0
sS'secret'
p835
V31114f793a
p836
sg21
S'http://farm4.static.flickr.com/3401/3473121141_31114f793a.jpg'
p837
sS'owner'
p838
V32965292@N08
p839
sS'id'
p840
V3473121141
p841
sbag4
(g5
g6
NtRp842
(dp843
S'isfamily'
p844
I0
sS'title'
p845
Vptcstdy2 PartyThruCollege
p846
sS'farm'
p847
I3
sg13
g14
sS'ispublic'
p848
I1
sS'server'
p849
V2544
p850
sS'isfriend'
p851
I0
sS'secret'
p852
V8f1d74ca9a
p853
sg21
S'http://farm3.static.flickr.com/2544/4035930927_8f1d74ca9a.jpg'
p854
sS'owner'
p855
V43878355@N07
p856
sS'id'
p857
V4035930927
p858
sbag4
(g5
g6
NtRp859
(dp860
S'isfamily'
p861
I0
sS'title'
p862
V3oj no hat PartyThruCollege
p863
sS'farm'
p864
I3
sg13
g14
sS'ispublic'
p865
I1
sS'server'
p866
V2662
p867
sS'isfriend'
p868
I0
sS'secret'
p869
Va3b34efd13
p870
sg21
S'http://farm3.static.flickr.com/2662/4036678882_a3b34efd13.jpg'
p871
sS'owner'
p872
V43878355@N07
p873
sS'id'
p874
V4036678882
p875
sbag4
(g5
g6
NtRp876
(dp877
S'isfamily'
p878
I0
sS'title'
p879
Vpickup PartyThruCollege
p880
sS'farm'
p881
I3
sg13
g14
sS'ispublic'
p882
I1
sS'server'
p883
V2546
p884
sS'isfriend'
p885
I0
sS'secret'
p886
Vcd973f07e2
p887
sg21
S'http://farm3.static.flickr.com/2546/4035931857_cd973f07e2.jpg'
p888
sS'owner'
p889
V43878355@N07
p890
sS'id'
p891
V4035931857
p892
sbag4
(g5
g6
NtRp893
(dp894
S'isfamily'
p895
I0
sS'title'
p896
VSept calendar
p897
sS'farm'
p898
I3
sg13
g14
sS'ispublic'
p899
I1
sS'server'
p900
V2775
p901
sS'isfriend'
p902
I0
sS'secret'
p903
Vff065b8d82
p904
sg21
S'http://farm3.static.flickr.com/2775/4260918363_ff065b8d82.jpg'
p905
sS'owner'
p906
V66195261@N00
p907
sS'id'
p908
V4260918363
p909
sbag4
(g5
g6
NtRp910
(dp911
S'isfamily'
p912
I0
sS'title'
p913
Vsail
p914
sS'farm'
p915
I7
sg13
g14
sS'ispublic'
p916
I1
sS'server'
p917
V6018
p918
sS'isfriend'
p919
I0
sS'secret'
p920
Vf94341dc31
p921
sg21
S'http://farm7.static.flickr.com/6018/6012486055_f94341dc31.jpg'
p922
sS'owner'
p923
V46657611@N00
p924
sS'id'
p925
V6012486055
p926
sbag4
(g5
g6
NtRp927
(dp928
S'isfamily'
p929
I0
sS'title'
p930
V2hammock PartyThruCollege
p931
sS'farm'
p932
I3
sg13
g14
sS'ispublic'
p933
I1
sS'server'
p934
V2578
p935
sS'isfriend'
p936
I0
sS'secret'
p937
Vbcfec7beef
p938
sg21
S'http://farm3.static.flickr.com/2578/4035931591_bcfec7beef.jpg'
p939
sS'owner'
p940
V43878355@N07
p941
sS'id'
p942
V4035931591
p943
sbag4
(g5
g6
NtRp944
(dp945
S'isfamily'
p946
I0
sS'title'
p947
VGravel Ridge
p948
sS'farm'
p949
I1
sg13
g14
sS'ispublic'
p950
I1
sS'server'
p951
V9
sS'isfriend'
p952
I0
sS'secret'
p953
Ve393dca704
p954
sg21
S'http://farm1.static.flickr.com/9/12415206_e393dca704.jpg'
p955
sS'owner'
p956
V12028361@N00
p957
sS'id'
p958
V12415206
p959
sbag4
(g5
g6
NtRp960
(dp961
S'isfamily'
p962
I0
sS'title'
p963
V2claire PartyThruCollege
p964
sS'farm'
p965
I3
sg13
g14
sS'ispublic'
p966
I1
sS'server'
p967
V2426
p968
sS'isfriend'
p969
I0
sS'secret'
p970
V5db82e1464
p971
sg21
S'http://farm3.static.flickr.com/2426/4036679876_5db82e1464.jpg'
p972
sS'owner'
p973
V43878355@N07
p974
sS'id'
p975
V4036679876
p976
sbag4
(g5
g6
NtRp977
(dp978
S'isfamily'
p979
I0
sS'title'
p980
V2baker PartyThruCollege
p981
sS'farm'
p982
I3
sg13
g14
sS'ispublic'
p983
I1
sS'server'
p984
V2728
p985
sS'isfriend'
p986
I0
sS'secret'
p987
Vef1ce79d9c
p988
sg21
S'http://farm3.static.flickr.com/2728/4036679030_ef1ce79d9c.jpg'
p989
sS'owner'
p990
V43878355@N07
p991
sS'id'
p992
V4036679030
p993
sbag4
(g5
g6
NtRp994
(dp995
S'isfamily'
p996
I0
sS'title'
p997
VTwo Story Funnel, Syraucse University 2009
p998
sS'farm'
p999
I2
sg13
g14
sS'ispublic'
p1000
I1
sS'server'
p1001
V1691
p1002
sS'isfriend'
p1003
I0
sS'secret'
p1004
Vf62d52ca18
p1005
sg21
S'http://farm2.static.flickr.com/1691/25578441633_f62d52ca18.jpg'
p1006
sS'owner'
p1007
V23430902@N04
p1008
sS'id'
p1009
V25578441633
p1010
sbag4
(g5
g6
NtRp1011
(dp1012
S'isfamily'
p1013
I0
sS'title'
p1014
V2er PartyThruCollege
p1015
sS'farm'
p1016
I3
sg13
g14
sS'ispublic'
p1017
I1
sS'server'
p1018
V2636
p1019
sS'isfriend'
p1020
I0
sS'secret'
p1021
V9e9c071b53
p1022
sg21
S'http://farm3.static.flickr.com/2636/4035931345_9e9c071b53.jpg'
p1023
sS'owner'
p1024
V43878355@N07
p1025
sS'id'
p1026
V4035931345
p1027
sbag4
(g5
g6
NtRp1028
(dp1029
S'isfamily'
p1030
I0
sS'title'
p1031
V3rita2 PartyThruCollege
p1032
sS'farm'
p1033
I3
sg13
g14
sS'ispublic'
p1034
I1
sS'server'
p1035
V2421
p1036
sS'isfriend'
p1037
I0
sS'secret'
p1038
Vc556b34b42
p1039
sg21
S'http://farm3.static.flickr.com/2421/4035930621_c556b34b42.jpg'
p1040
sS'owner'
p1041
V43878355@N07
p1042
sS'id'
p1043
V4035930621
p1044
sbag4
(g5
g6
NtRp1045
(dp1046
S'isfamily'
p1047
I0
sS'title'
p1048
VMaster Shake and Me
p1049
sS'farm'
p1050
I1
sg13
g14
sS'ispublic'
p1051
I1
sS'server'
p1052
V27
p1053
sS'isfriend'
p1054
I0
sS'secret'
p1055
V31b10ca447
p1056
sg21
S'http://farm1.static.flickr.com/27/88452200_31b10ca447.jpg'
p1057
sS'owner'
p1058
V87678609@N00
p1059
sS'id'
p1060
V88452200
p1061
sbag4
(g5
g6
NtRp1062
(dp1063
S'isfamily'
p1064
I0
sS'title'
p1065
VSorry bro but I don't think that's the bathroom #frattiest #wasted #college #drunk #frat #fratty #fratmatt #fratmattproductions #fratstar #fraternity #fratsgiving #greek #gogreek #greekordie #tfm #tpm #thanksgiving #turkey #fratmove #tftc
p1066
sS'farm'
p1067
I4
sg13
g14
sS'ispublic'
p1068
I1
sS'server'
p1069
V3766
p1070
sS'isfriend'
p1071
I0
sS'secret'
p1072
Vdc1d6bc40d
p1073
sg21
S'http://farm4.static.flickr.com/3766/11105239714_dc1d6bc40d.jpg'
p1074
sS'owner'
p1075
V109695389@N03
p1076
sS'id'
p1077
V11105239714
p1078
sbag4
(g5
g6
NtRp1079
(dp1080
S'isfamily'
p1081
I0
sS'title'
p1082
VPartyThruCollege
p1083
sS'farm'
p1084
I3
sg13
g14
sS'ispublic'
p1085
I1
sS'server'
p1086
V2490
p1087
sS'isfriend'
p1088
I0
sS'secret'
p1089
V4c08165768
p1090
sg21
S'http://farm3.static.flickr.com/2490/4035930113_4c08165768.jpg'
p1091
sS'owner'
p1092
V43878355@N07
p1093
sS'id'
p1094
V4035930113
p1095
sbag4
(g5
g6
NtRp1096
(dp1097
S'isfamily'
p1098
I0
sS'title'
p1099
VTam
p1100
sS'farm'
p1101
I1
sg13
g14
sS'ispublic'
p1102
I1
sS'server'
p1103
V74
p1104
sS'isfriend'
p1105
I0
sS'secret'
p1106
V0cdd4bd0e6
p1107
sg21
S'http://farm1.static.flickr.com/74/203603230_0cdd4bd0e6.jpg'
p1108
sS'owner'
p1109
V18773952@N00
p1110
sS'id'
p1111
V203603230
p1112
sbag4
(g5
g6
NtRp1113
(dp1114
S'isfamily'
p1115
I0
sS'title'
p1116
V#hashtag #hashtags #party #beer #drink #drinking #frat #bitch #drunk #new #now #life #lol #hate #hater #iphonephoto #text #tech #fail #illustration #instadaily #quoteoftheday #picoftheday #lmao #lmfao #funny #toofunny #art #trending #share
p1117
sS'farm'
p1118
I4
sg13
g14
sS'ispublic'
p1119
I1
sS'server'
p1120
V3930
p1121
sS'isfriend'
p1122
I0
sS'secret'
p1123
V8488a155c7
p1124
sg21
S'http://farm4.static.flickr.com/3930/15271167660_8488a155c7.jpg'
p1125
sS'owner'
p1126
V127568985@N04
p1127
sS'id'
p1128
V15271167660
p1129
sbag4
(g5
g6
NtRp1130
(dp1131
S'isfamily'
p1132
I0
sS'title'
p1133
VNorth Beach Pizza
p1134
sS'farm'
p1135
I4
sg13
g14
sS'ispublic'
p1136
I1
sS'server'
p1137
V3095
p1138
sS'isfriend'
p1139
I0
sS'secret'
p1140
V79d6386604
p1141
sg21
S'http://farm4.static.flickr.com/3095/2711098881_79d6386604.jpg'
p1142
sS'owner'
p1143
V30396301@N00
p1144
sS'id'
p1145
V2711098881
p1146
sbag4
(g5
g6
NtRp1147
(dp1148
S'isfamily'
p1149
I0
sS'title'
p1150
VLabor Day Corntoss Tournamnet
p1151
sS'farm'
p1152
I4
sg13
g14
sS'ispublic'
p1153
I1
sS'server'
p1154
V3221
p1155
sS'isfriend'
p1156
I0
sS'secret'
p1157
V028fa15b84
p1158
sg21
S'http://farm4.static.flickr.com/3221/2828996415_028fa15b84.jpg'
p1159
sS'owner'
p1160
V35071522@N00
p1161
sS'id'
p1162
V2828996415
p1163
sbag4
(g5
g6
NtRp1164
(dp1165
S'isfamily'
p1166
I0
sS'title'
p1167
VZZ  Drunk Frat Boys Have A 69 In the Bathroom In The Dorm  (Nude Male Naked Men Gay Porn Sex Oral
p1168
sS'farm'
p1169
I4
sg13
g14
sS'ispublic'
p1170
I1
sS'server'
p1171
V3676
p1172
sS'isfriend'
p1173
I0
sS'secret'
p1174
Vd48a9b5b90
p1175
sg21
S'http://farm4.static.flickr.com/3676/20056204289_d48a9b5b90.jpg'
p1176
sS'owner'
p1177
V69518389@N04
p1178
sS'id'
p1179
V20056204289
p1180
sbag4
(g5
g6
NtRp1181
(dp1182
S'isfamily'
p1183
I0
sS'title'
p1184
VQuestioning Your Sexuality
p1185
sS'farm'
p1186
I6
sg13
g14
sS'ispublic'
p1187
I1
sS'server'
p1188
V5761
p1189
sS'isfriend'
p1190
I0
sS'secret'
p1191
V1eae82fc0f
p1192
sg21
S'http://farm6.static.flickr.com/5761/30721843236_1eae82fc0f.jpg'
p1193
sS'owner'
p1194
V144105052@N07
p1195
sS'id'
p1196
V30721843236
p1197
sbag4
(g5
g6
NtRp1198
(dp1199
S'isfamily'
p1200
I0
sS'title'
p1201
V08.07.09
p1202
sS'farm'
p1203
I4
sg13
g14
sS'ispublic'
p1204
I1
sS'server'
p1205
V3503
p1206
sS'isfriend'
p1207
I0
sS'secret'
p1208
V76276aa266
p1209
sg21
S'http://farm4.static.flickr.com/3503/3801320918_76276aa266.jpg'
p1210
sS'owner'
p1211
V37166287@N00
p1212
sS'id'
p1213
V3801320918
p1214
sbag4
(g5
g6
NtRp1215
(dp1216
S'isfamily'
p1217
I0
sS'title'
p1218
VFor Phillip
p1219
sS'farm'
p1220
I1
sg13
g14
sS'ispublic'
p1221
I1
sS'server'
p1222
V28
p1223
sS'isfriend'
p1224
I0
sS'secret'
p1225
V88c65f6843
p1226
sg21
S'http://farm1.static.flickr.com/28/54258697_88c65f6843.jpg'
p1227
sS'owner'
p1228
V89817429@N00
p1229
sS'id'
p1230
V54258697
p1231
sbag4
(g5
g6
NtRp1232
(dp1233
S'isfamily'
p1234
I0
sS'title'
p1235
VA Not-So-Drunk Frat
p1236
sS'farm'
p1237
I4
sg13
g14
sS'ispublic'
p1238
I1
sS'server'
p1239
V3466
p1240
sS'isfriend'
p1241
I0
sS'secret'
p1242
V1a747ea80b
p1243
sg21
S'http://farm4.static.flickr.com/3466/3819829560_1a747ea80b.jpg'
p1244
sS'owner'
p1245
V14183017@N00
p1246
sS'id'
p1247
V3819829560
p1248
sbag4
(g5
g6
NtRp1249
(dp1250
S'isfamily'
p1251
I0
sS'title'
p1252
V
sS'farm'
p1253
I5
sg13
g14
sS'ispublic'
p1254
I1
sS'server'
p1255
V4002
p1256
sS'isfriend'
p1257
I0
sS'secret'
p1258
V9cac01af91
p1259
sg21
S'http://farm5.static.flickr.com/4002/4700873446_9cac01af91.jpg'
p1260
sS'owner'
p1261
V37575164@N00
p1262
sS'id'
p1263
V4700873446
p1264
sbag4
(g5
g6
NtRp1265
(dp1266
S'isfamily'
p1267
I0
sS'title'
p1268
VDSC_01281
p1269
sS'farm'
p1270
I4
sg13
g14
sS'ispublic'
p1271
I1
sS'server'
p1272
V3614
p1273
sS'isfriend'
p1274
I0
sS'secret'
p1275
V9fef5413e3
p1276
sg21
S'http://farm4.static.flickr.com/3614/3473141569_9fef5413e3.jpg'
p1277
sS'owner'
p1278
V32965292@N08
p1279
sS'id'
p1280
V3473141569
p1281
sbag4
(g5
g6
NtRp1282
(dp1283
S'isfamily'
p1284
I0
sS'title'
p1285
VProfessional lawn sitters
p1286
sS'farm'
p1287
I1
sg13
g14
sS'ispublic'
p1288
I1
sS'server'
p1289
V48
p1290
sS'isfriend'
p1291
I0
sS'secret'
p1292
V5f2d8e3666
p1293
sg21
S'http://farm1.static.flickr.com/48/155916970_5f2d8e3666.jpg'
p1294
sS'owner'
p1295
V28836461@N00
p1296
sS'id'
p1297
V155916970
p1298
sbag4
(g5
g6
NtRp1299
(dp1300
S'isfamily'
p1301
I0
sS'title'
p1302
VCeylon passed out like a drunk frat boy
p1303
sS'farm'
p1304
I3
sg13
g14
sS'ispublic'
p1305
I1
sS'server'
p1306
V2540
p1307
sS'isfriend'
p1308
I0
sS'secret'
p1309
V1077270357
p1310
sg21
S'http://farm3.static.flickr.com/2540/5836747669_1077270357.jpg'
p1311
sS'owner'
p1312
V8445314@N05
p1313
sS'id'
p1314
V5836747669
p1315
sbag4
(g5
g6
NtRp1316
(dp1317
S'isfamily'
p1318
I0
sS'title'
p1319
VGoofy Face
p1320
sS'farm'
p1321
I4
sg13
g14
sS'ispublic'
p1322
I1
sS'server'
p1323
V3030
p1324
sS'isfriend'
p1325
I0
sS'secret'
p1326
V905801a13b
p1327
sg21
S'http://farm4.static.flickr.com/3030/3039658836_905801a13b.jpg'
p1328
sS'owner'
p1329
V23446766@N08
p1330
sS'id'
p1331
V3039658836
p1332
sbag4
(g5
g6
NtRp1333
(dp1334
S'isfamily'
p1335
I0
sS'title'
p1336
VWe love Jesus
p1337
sS'farm'
p1338
I6
sg13
g14
sS'ispublic'
p1339
I1
sS'server'
p1340
V5250
p1341
sS'isfriend'
p1342
I0
sS'secret'
p1343
V06a26fa36b
p1344
sg21
S'http://farm6.static.flickr.com/5250/5261974898_06a26fa36b.jpg'
p1345
sS'owner'
p1346
V33783523@N06
p1347
sS'id'
p1348
V5261974898
p1349
sbag4
(g5
g6
NtRp1350
(dp1351
S'isfamily'
p1352
I0
sS'title'
p1353
Vspace needle kaboom
p1354
sS'farm'
p1355
I1
sg13
g14
sS'ispublic'
p1356
I1
sS'server'
p1357
V144
p1358
sS'isfriend'
p1359
I0
sS'secret'
p1360
Vd22341a564
p1361
sg21
S'http://farm1.static.flickr.com/144/343247819_d22341a564.jpg'
p1362
sS'owner'
p1363
V39916810@N00
p1364
sS'id'
p1365
V343247819
p1366
sbag4
(g5
g6
NtRp1367
(dp1368
S'isfamily'
p1369
I0
sS'title'
p1370
VOh no you did not just fucking fart on this PACKED SHUTTLE.  You turned it into a SHITTLE.  Thanks young drunk frat douche.
p1371
sS'farm'
p1372
I1
sg13
g14
sS'ispublic'
p1373
I1
sS'server'
p1374
V388
p1375
sS'isfriend'
p1376
I0
sS'secret'
p1377
Vb051c0a004
p1378
sg21
S'http://farm1.static.flickr.com/388/18985193530_b051c0a004.jpg'
p1379
sS'owner'
p1380
V49862987@N00
p1381
sS'id'
p1382
V18985193530
p1383
sbag4
(g5
g6
NtRp1384
(dp1385
S'isfamily'
p1386
I0
sS'title'
p1387
VVlattie and Buck (shooting out food like a drunk frat boy)
p1388
sS'farm'
p1389
I8
sg13
g14
sS'ispublic'
p1390
I1
sS'server'
p1391
V7068
p1392
sS'isfriend'
p1393
I0
sS'secret'
p1394
Vb3386f31fe
p1395
sg21
S'http://farm8.static.flickr.com/7068/6921285168_b3386f31fe.jpg'
p1396
sS'owner'
p1397
V95405702@N00
p1398
sS'id'
p1399
V6921285168
p1400
sbag4
(g5
g6
NtRp1401
(dp1402
S'isfamily'
p1403
I0
sS'title'
p1404
VLittle Robots Sunday Strip #81: DmD: Dialog Must Die
p1405
sS'farm'
p1406
I9
sg13
g14
sS'ispublic'
p1407
I1
sS'server'
p1408
V8249
p1409
sS'isfriend'
p1410
I0
sS'secret'
p1411
V07dfc85427
p1412
sg21
S'http://farm9.static.flickr.com/8249/8524167379_07dfc85427.jpg'
p1413
sS'owner'
p1414
V30479085@N06
p1415
sS'id'
p1416
V8524167379
p1417
sbag4
(g5
g6
NtRp1418
(dp1419
S'isfamily'
p1420
I0
sS'title'
p1421
VWell. That explains why Jax was acting like a drunk frat boy in Target.
p1422
sS'farm'
p1423
I8
sg13
g14
sS'ispublic'
p1424
I1
sS'server'
p1425
V7116
p1426
sS'isfriend'
p1427
I0
sS'secret'
p1428
V99d92c1530
p1429
sg21
S'http://farm8.static.flickr.com/7116/7698413612_99d92c1530.jpg'
p1430
sS'owner'
p1431
V16861944@N00
p1432
sS'id'
p1433
V7698413612
p1434
sbag4
(g5
g6
NtRp1435
(dp1436
S'isfamily'
p1437
I0
sS'title'
p1438
VMary Chapin Carpenter!
p1439
sS'farm'
p1440
I6
sg13
g14
sS'ispublic'
p1441
I1
sS'server'
p1442
V5060
p1443
sS'isfriend'
p1444
I0
sS'secret'
p1445
V66f771906a
p1446
sg21
S'http://farm6.static.flickr.com/5060/5479479377_66f771906a.jpg'
p1447
sS'owner'
p1448
V21452551@N08
p1449
sS'id'
p1450
V5479479377
p1451
sbag4
(g5
g6
NtRp1452
(dp1453
S'isfamily'
p1454
I0
sS'title'
p1455
VGina, Jackie, drunk frat guy, and me
p1456
sS'farm'
p1457
I4
sg13
g14
sS'ispublic'
p1458
I1
sS'server'
p1459
V3389
p1460
sS'isfriend'
p1461
I0
sS'secret'
p1462
Vc6f298001c
p1463
sg21
S'http://farm4.static.flickr.com/3389/3515055136_c6f298001c.jpg'
p1464
sS'owner'
p1465
V36458357@N05
p1466
sS'id'
p1467
V3515055136
p1468
sbag4
(g5
g6
NtRp1469
(dp1470
S'isfamily'
p1471
I0
sS'title'
p1472
VWe like to call this the "drunk frat boy" look...
p1473
sS'farm'
p1474
I3
sg13
g14
sS'ispublic'
p1475
I1
sS'server'
p1476
V2531
p1477
sS'isfriend'
p1478
I0
sS'secret'
p1479
Vd22b1797b6
p1480
sg21
S'http://farm3.static.flickr.com/2531/3697975750_d22b1797b6.jpg'
p1481
sS'owner'
p1482
V23138524@N02
p1483
sS'id'
p1484
V3697975750
p1485
sbag4
(g5
g6
NtRp1486
(dp1487
S'isfamily'
p1488
I0
sS'title'
p1489
VLake Powell off Season
p1490
sS'farm'
p1491
I1
sg13
g14
sS'ispublic'
p1492
I1
sS'server'
p1493
V126
p1494
sS'isfriend'
p1495
I0
sS'secret'
p1496
V266e90a010
p1497
sg21
S'http://farm1.static.flickr.com/126/362219399_266e90a010.jpg'
p1498
sS'owner'
p1499
V95681724@N00
p1500
sS'id'
p1501
V362219399
p1502
sbag4
(g5
g6
NtRp1503
(dp1504
S'isfamily'
p1505
I0
sS'title'
p1506
Vyes, that drunk frat guy is my brother.
p1507
sS'farm'
p1508
I1
sg13
g14
sS'ispublic'
p1509
I1
sS'server'
p1510
V24
p1511
sS'isfriend'
p1512
I0
sS'secret'
p1513
V07783e3ce0
p1514
sg21
S'http://farm1.static.flickr.com/24/63794248_07783e3ce0.jpg'
p1515
sS'owner'
p1516
V48209490@N00
p1517
sS'id'
p1518
V63794248
p1519
sbag4
(g5
g6
NtRp1520
(dp1521
S'isfamily'
p1522
I0
sS'title'
p1523
Va story for another time...
p1524
sS'farm'
p1525
I1
sg13
g14
sS'ispublic'
p1526
I1
sS'server'
p1527
V49
p1528
sS'isfriend'
p1529
I0
sS'secret'
p1530
V21ba4fa2e6
p1531
sg21
S'http://farm1.static.flickr.com/49/150805654_21ba4fa2e6.jpg'
p1532
sS'owner'
p1533
V20875074@N00
p1534
sS'id'
p1535
V150805654
p1536
sbag4
(g5
g6
NtRp1537
(dp1538
S'isfamily'
p1539
I0
sS'title'
p1540
Vdowntown Busan
p1541
sS'farm'
p1542
I1
sg13
g14
sS'ispublic'
p1543
I1
sS'server'
p1544
V97
p1545
sS'isfriend'
p1546
I0
sS'secret'
p1547
V1e53f06682
p1548
sg21
S'http://farm1.static.flickr.com/97/227198079_1e53f06682.jpg'
p1549
sS'owner'
p1550
V64352565@N00
p1551
sS'id'
p1552
V227198079
p1553
sbag4
(g5
g6
NtRp1554
(dp1555
S'isfamily'
p1556
I0
sS'title'
p1557
VA Stop On The Hike
p1558
sS'farm'
p1559
I1
sg13
g14
sS'ispublic'
p1560
I1
sS'server'
p1561
V55
p1562
sS'isfriend'
p1563
I0
sS'secret'
p1564
V02e4fb6e88
p1565
sg21
S'http://farm1.static.flickr.com/55/140704862_02e4fb6e88.jpg'
p1566
sS'owner'
p1567
V82329524@N00
p1568
sS'id'
p1569
V140704862
p1570
sbag4
(g5
g6
NtRp1571
(dp1572
S'isfamily'
p1573
I0
sS'title'
p1574
VThe ongoing remnants of drunk frat dudes wrestling and...making crafts? @little_berlin
p1575
sS'farm'
p1576
I6
sg13
g14
sS'ispublic'
p1577
I1
sS'server'
p1578
V5115
p1579
sS'isfriend'
p1580
I0
sS'secret'
p1581
V902b54a55d
p1582
sg21
S'http://farm6.static.flickr.com/5115/5794748151_902b54a55d.jpg'
p1583
sS'owner'
p1584
V32155460@N03
p1585
sS'id'
p1586
V5794748151
p1587
sbag4
(g5
g6
NtRp1588
(dp1589
S'isfamily'
p1590
I0
sS'title'
p1591
VDokie and Simmie
p1592
sS'farm'
p1593
I1
sg13
g14
sS'ispublic'
p1594
I1
sS'server'
p1595
V775
p1596
sS'isfriend'
p1597
I0
sS'secret'
p1598
Vc264bae5e2
p1599
sg21
S'http://farm1.static.flickr.com/775/21736366582_c264bae5e2.jpg'
p1600
sS'owner'
p1601
V97359548@N08
p1602
sS'id'
p1603
V21736366582
p1604
sbag4
(g5
g6
NtRp1605
(dp1606
S'isfamily'
p1607
I0
sS'title'
p1608
Vlistening to the crowd
p1609
sS'farm'
p1610
I1
sg13
g14
sS'ispublic'
p1611
I1
sS'server'
p1612
V231
p1613
sS'isfriend'
p1614
I0
sS'secret'
p1615
Vce5ce7d440
p1616
sg21
S'http://farm1.static.flickr.com/231/524131262_ce5ce7d440.jpg'
p1617
sS'owner'
p1618
V48246076@N00
p1619
sS'id'
p1620
V524131262
p1621
sbag4
(g5
g6
NtRp1622
(dp1623
S'isfamily'
p1624
I0
sS'title'
p1625
VBombshell Girls and Miss Understood
p1626
sS'farm'
p1627
I1
sg13
g14
sS'ispublic'
p1628
I1
sS'server'
p1629
V128
p1630
sS'isfriend'
p1631
I0
sS'secret'
p1632
V1361a30675
p1633
sg21
S'http://farm1.static.flickr.com/128/400665938_1361a30675.jpg'
p1634
sS'owner'
p1635
V61114021@N00
p1636
sS'id'
p1637
V400665938
p1638
sbag4
(g5
g6
NtRp1639
(dp1640
S'isfamily'
p1641
I0
sS'title'
p1642
VBeer Goggles
p1643
sS'farm'
p1644
I4
sg13
g14
sS'ispublic'
p1645
I1
sS'server'
p1646
V3543
p1647
sS'isfriend'
p1648
I0
sS'secret'
p1649
V5a3e6c8575
p1650
sg21
S'http://farm4.static.flickr.com/3543/3436579000_5a3e6c8575.jpg'
p1651
sS'owner'
p1652
V24295774@N04
p1653
sS'id'
p1654
V3436579000
p1655
sbag4
(g5
g6
NtRp1656
(dp1657
S'isfamily'
p1658
I0
sS'title'
p1659
VChasing rednecks
p1660
sS'farm'
p1661
I2
sg13
g14
sS'ispublic'
p1662
I1
sS'server'
p1663
V1166
p1664
sS'isfriend'
p1665
I0
sS'secret'
p1666
V831795cd68
p1667
sg21
S'http://farm2.static.flickr.com/1166/935683678_831795cd68.jpg'
p1668
sS'owner'
p1669
V10372533@N06
p1670
sS'id'
p1671
V935683678
p1672
sbag4
(g5
g6
NtRp1673
(dp1674
S'isfamily'
p1675
I0
sS'title'
p1676
VCrab
p1677
sS'farm'
p1678
I1
sg13
g14
sS'ispublic'
p1679
I1
sS'server'
p1680
V45
p1681
sS'isfriend'
p1682
I0
sS'secret'
p1683
V2f31c65f9b
p1684
sg21
S'http://farm1.static.flickr.com/45/166934070_2f31c65f9b.jpg'
p1685
sS'owner'
p1686
V24702449@N00
p1687
sS'id'
p1688
V166934070
p1689
sbag4
(g5
g6
NtRp1690
(dp1691
S'isfamily'
p1692
I0
sS'title'
p1693
VFebruary 20th
p1694
sS'farm'
p1695
I9
sg13
g14
sS'ispublic'
p1696
I1
sS'server'
p1697
V8101
p1698
sS'isfriend'
p1699
I0
sS'secret'
p1700
V1249ab045c
p1701
sg21
S'http://farm9.static.flickr.com/8101/8493028594_1249ab045c.jpg'
p1702
sS'owner'
p1703
V87534130@N04
p1704
sS'id'
p1705
V8493028594
p1706
sbag4
(g5
g6
NtRp1707
(dp1708
S'isfamily'
p1709
I0
sS'title'
p1710
VThe ongoing remnants of drunk frat dudes wrestling and...making crafts? @little_berlin
p1711
sS'farm'
p1712
I3
sg13
g14
sS'ispublic'
p1713
I1
sS'server'
p1714
V2079
p1715
sS'isfriend'
p1716
I0
sS'secret'
p1717
V207ccca311
p1718
sg21
S'http://farm3.static.flickr.com/2079/5794748051_207ccca311.jpg'
p1719
sS'owner'
p1720
V32155460@N03
p1721
sS'id'
p1722
V5794748051
p1723
sbag4
(g5
g6
NtRp1724
(dp1725
S'isfamily'
p1726
I0
sS'title'
p1727
VHard Rock Hotel View
p1728
sS'farm'
p1729
I2
sg13
g14
sS'ispublic'
p1730
I1
sS'server'
p1731
V1067
p1732
sS'isfriend'
p1733
I0
sS'secret'
p1734
Vf348f2dcc2
p1735
sg21
S'http://farm2.static.flickr.com/1067/1459809407_f348f2dcc2.jpg'
p1736
sS'owner'
p1737
V23546750@N00
p1738
sS'id'
p1739
V1459809407
p1740
sbag4
(g5
g6
NtRp1741
(dp1742
S'isfamily'
p1743
I0
sS'title'
p1744
VCamping night one
p1745
sS'farm'
p1746
I3
sg13
g14
sS'ispublic'
p1747
I1
sS'server'
p1748
V2097
p1749
sS'isfriend'
p1750
I0
sS'secret'
p1751
V8129dddd05
p1752
sg21
S'http://farm3.static.flickr.com/2097/2380686568_8129dddd05.jpg'
p1753
sS'owner'
p1754
V16891819@N07
p1755
sS'id'
p1756
V2380686568
p1757
sbag4
(g5
g6
NtRp1758
(dp1759
S'isfamily'
p1760
I0
sS'title'
p1761
VComing of Age
p1762
sS'farm'
p1763
I3
sg13
g14
sS'ispublic'
p1764
I1
sS'server'
p1765
V2403
p1766
sS'isfriend'
p1767
I0
sS'secret'
p1768
V329ce15e78
p1769
sg21
S'http://farm3.static.flickr.com/2403/2081200828_329ce15e78.jpg'
p1770
sS'owner'
p1771
V85016918@N00
p1772
sS'id'
p1773
V2081200828
p1774
sbag4
(g5
g6
NtRp1775
(dp1776
S'isfamily'
p1777
I0
sS'title'
p1778
Vhalloween 010
p1779
sS'farm'
p1780
I1
sg13
g14
sS'ispublic'
p1781
I1
sS'server'
p1782
V103
p1783
sS'isfriend'
p1784
I0
sS'secret'
p1785
V1cb8537853
p1786
sg21
S'http://farm1.static.flickr.com/103/286961341_1cb8537853.jpg'
p1787
sS'owner'
p1788
V77009411@N00
p1789
sS'id'
p1790
V286961341
p1791
sbag4
(g5
g6
NtRp1792
(dp1793
S'isfamily'
p1794
I0
sS'title'
p1795
Vgetting ready for the Beastie Boys
p1796
sS'farm'
p1797
I2
sg13
g14
sS'ispublic'
p1798
I1
sS'server'
p1799
V1130
p1800
sS'isfriend'
p1801
I0
sS'secret'
p1802
Vd85efc5fa1
p1803
sg21
S'http://farm2.static.flickr.com/1130/1219342287_d85efc5fa1.jpg'
p1804
sS'owner'
p1805
V40188584@N00
p1806
sS'id'
p1807
V1219342287
p1808
sbag4
(g5
g6
NtRp1809
(dp1810
S'isfamily'
p1811
I0
sS'title'
p1812
V75centsworthofbullshit
p1813
sS'farm'
p1814
I1
sg13
g14
sS'ispublic'
p1815
I1
sS'server'
p1816
V32
p1817
sS'isfriend'
p1818
I0
sS'secret'
p1819
V1eefb25050
p1820
sg21
S'http://farm1.static.flickr.com/32/50309873_1eefb25050.jpg'
p1821
sS'owner'
p1822
V37996590527@N01
p1823
sS'id'
p1824
V50309873
p1825
sbag4
(g5
g6
NtRp1826
(dp1827
S'isfamily'
p1828
I0
sS'title'
p1829
V1993-05-08 Belly
p1830
sS'farm'
p1831
I4
sg13
g14
sS'ispublic'
p1832
I1
sS'server'
p1833
V3326
p1834
sS'isfriend'
p1835
I0
sS'secret'
p1836
V0b913c989c
p1837
sg21
S'http://farm4.static.flickr.com/3326/3213730971_0b913c989c.jpg'
p1838
sS'owner'
p1839
V85512596@N00
p1840
sS'id'
p1841
V3213730971
p1842
sbag4
(g5
g6
NtRp1843
(dp1844
S'isfamily'
p1845
I0
sS'title'
p1846
V
sS'farm'
p1847
I3
sg13
g14
sS'ispublic'
p1848
I1
sS'server'
p1849
V2463
p1850
sS'isfriend'
p1851
I0
sS'secret'
p1852
V3aac917a30
p1853
sg21
S'http://farm3.static.flickr.com/2463/3752099867_3aac917a30.jpg'
p1854
sS'owner'
p1855
V16212284@N00
p1856
sS'id'
p1857
V3752099867
p1858
sbag4
(g5
g6
NtRp1859
(dp1860
S'isfamily'
p1861
I0
sS'title'
p1862
Vrainbow brite
p1863
sS'farm'
p1864
I1
sg13
g14
sS'ispublic'
p1865
I1
sS'server'
p1866
V113
p1867
sS'isfriend'
p1868
I0
sS'secret'
p1869
V77573985e5
p1870
sg21
S'http://farm1.static.flickr.com/113/287364166_77573985e5.jpg'
p1871
sS'owner'
p1872
V21471037@N00
p1873
sS'id'
p1874
V287364166
p1875
sbag4
(g5
g6
NtRp1876
(dp1877
S'isfamily'
p1878
I0
sS'title'
p1879
V
sS'farm'
p1880
I5
sg13
g14
sS'ispublic'
p1881
I1
sS'server'
p1882
V4061
p1883
sS'isfriend'
p1884
I0
sS'secret'
p1885
V45e21b037a
p1886
sg21
S'http://farm5.static.flickr.com/4061/4446935469_45e21b037a.jpg'
p1887
sS'owner'
p1888
V89095523@N00
p1889
sS'id'
p1890
V4446935469
p1891
sbag4
(g5
g6
NtRp1892
(dp1893
S'isfamily'
p1894
I0
sS'title'
p1895
Vworking on the nose wrinkle thing
p1896
sS'farm'
p1897
I3
sg13
g14
sS'ispublic'
p1898
I1
sS'server'
p1899
V2550
p1900
sS'isfriend'
p1901
I0
sS'secret'
p1902
V37aeeac4b5
p1903
sg21
S'http://farm3.static.flickr.com/2550/3697072938_37aeeac4b5.jpg'
p1904
sS'owner'
p1905
V11339229@N00
p1906
sS'id'
p1907
V3697072938
p1908
sbag4
(g5
g6
NtRp1909
(dp1910
S'isfamily'
p1911
I0
sS'title'
p1912
VDSC00695
p1913
sS'farm'
p1914
I3
sg13
g14
sS'ispublic'
p1915
I1
sS'server'
p1916
V2243
p1917
sS'isfriend'
p1918
I0
sS'secret'
p1919
Vcea2d8db15
p1920
sg21
S'http://farm3.static.flickr.com/2243/1934662575_cea2d8db15.jpg'
p1921
sS'owner'
p1922
V7442928@N03
p1923
sS'id'
p1924
V1934662575
p1925
sbag4
(g5
g6
NtRp1926
(dp1927
S'isfamily'
p1928
I0
sS'title'
p1929
VSleepy little man man
p1930
sS'farm'
p1931
I8
sg13
g14
sS'ispublic'
p1932
I1
sS'server'
p1933
V7169
p1934
sS'isfriend'
p1935
I0
sS'secret'
p1936
Vb4a0b7c0da
p1937
sg21
S'http://farm8.static.flickr.com/7169/6610646447_b4a0b7c0da.jpg'
p1938
sS'owner'
p1939
V86528671@N00
p1940
sS'id'
p1941
V6610646447
p1942
sbag4
(g5
g6
NtRp1943
(dp1944
S'isfamily'
p1945
I0
sS'title'
p1946
VThe Solarte Family
p1947
sS'farm'
p1948
I1
sg13
g14
sS'ispublic'
p1949
I1
sS'server'
p1950
V130
p1951
sS'isfriend'
p1952
I0
sS'secret'
p1953
Vd5ad46df21
p1954
sg21
S'http://farm1.static.flickr.com/130/333660523_d5ad46df21.jpg'
p1955
sS'owner'
p1956
V56693497@N00
p1957
sS'id'
p1958
V333660523
p1959
sbag4
(g5
g6
NtRp1960
(dp1961
S'isfamily'
p1962
I0
sS'title'
p1963
VDSC00916
p1964
sS'farm'
p1965
I4
sg13
g14
sS'ispublic'
p1966
I1
sS'server'
p1967
V3415
p1968
sS'isfriend'
p1969
I0
sS'secret'
p1970
V565ac73562
p1971
sg21
S'http://farm4.static.flickr.com/3415/3186599314_565ac73562.jpg'
p1972
sS'owner'
p1973
V8307070@N02
p1974
sS'id'
p1975
V3186599314
p1976
sbag4
(g5
g6
NtRp1977
(dp1978
S'isfamily'
p1979
I0
sS'title'
p1980
VBelize GP Hopkins Canon 093
p1981
sS'farm'
p1982
I4
sg13
g14
sS'ispublic'
p1983
I1
sS'server'
p1984
V3582
p1985
sS'isfriend'
p1986
I0
sS'secret'
p1987
V324ee45377
p1988
sg21
S'http://farm4.static.flickr.com/3582/3506306642_324ee45377.jpg'
p1989
sS'owner'
p1990
V15501491@N07
p1991
sS'id'
p1992
V3506306642
p1993
sbag4
(g5
g6
NtRp1994
(dp1995
S'isfamily'
p1996
I0
sS'title'
p1997
V4
sS'farm'
p1998
I2
sg13
g14
sS'ispublic'
p1999
I1
sS'server'
p2000
V1052
p2001
sS'isfriend'
p2002
I0
sS'secret'
p2003
Vbaeeff7b0c
p2004
sg21
S'http://farm2.static.flickr.com/1052/665822502_baeeff7b0c.jpg'
p2005
sS'owner'
p2006
V9461757@N08
p2007
sS'id'
p2008
V665822502
p2009
sbag4
(g5
g6
NtRp2010
(dp2011
S'isfamily'
p2012
I0
sS'title'
p2013
VIMG_6529
p2014
sS'farm'
p2015
I3
sg13
g14
sS'ispublic'
p2016
I1
sS'server'
p2017
V2820
p2018
sS'isfriend'
p2019
I0
sS'secret'
p2020
Ve8e8922b33
p2021
sg21
S'http://farm3.static.flickr.com/2820/10665854024_e8e8922b33.jpg'
p2022
sS'owner'
p2023
V56986641@N03
p2024
sS'id'
p2025
V10665854024
p2026
sbag4
(g5
g6
NtRp2027
(dp2028
S'isfamily'
p2029
I0
sS'title'
p2030
VThe Saddle Brook Crew
p2031
sS'farm'
p2032
I1
sg13
g14
sS'ispublic'
p2033
I1
sS'server'
p2034
V132
p2035
sS'isfriend'
p2036
I0
sS'secret'
p2037
V6fe785b95f
p2038
sg21
S'http://farm1.static.flickr.com/132/317996446_6fe785b95f.jpg'
p2039
sS'owner'
p2040
V32442850@N00
p2041
sS'id'
p2042
V317996446
p2043
sbag4
(g5
g6
NtRp2044
(dp2045
S'isfamily'
p2046
I0
sS'title'
p2047
VDrunk frat bros standing in line at the Wendy's drive thru....
p2048
sS'farm'
p2049
I4
sg13
g14
sS'ispublic'
p2050
I1
sS'server'
p2051
V3771
p2052
sS'isfriend'
p2053
I0
sS'secret'
p2054
Va27e6b9fb1
p2055
sg21
S'http://farm4.static.flickr.com/3771/20392595316_a27e6b9fb1.jpg'
p2056
sS'owner'
p2057
V51989801@N00
p2058
sS'id'
p2059
V20392595316
p2060
sbag4
(g5
g6
NtRp2061
(dp2062
S'isfamily'
p2063
I0
sS'title'
p2064
Vshutupjocks
p2065
sS'farm'
p2066
I2
sg13
g14
sS'ispublic'
p2067
I1
sS'server'
p2068
V1199
p2069
sS'isfriend'
p2070
I0
sS'secret'
p2071
Va5dae854a8
p2072
sg21
S'http://farm2.static.flickr.com/1199/1389730835_a5dae854a8.jpg'
p2073
sS'owner'
p2074
V9058124@N02
p2075
sS'id'
p2076
V1389730835
p2077
sbag4
(g5
g6
NtRp2078
(dp2079
S'isfamily'
p2080
I0
sS'title'
p2081
VTianjin 92
p2082
sS'farm'
p2083
I4
sg13
g14
sS'ispublic'
p2084
I1
sS'server'
p2085
V3222
p2086
sS'isfriend'
p2087
I0
sS'secret'
p2088
V2afd614b19
p2089
sg21
S'http://farm4.static.flickr.com/3222/2541783365_2afd614b19.jpg'
p2090
sS'owner'
p2091
V73474605@N00
p2092
sS'id'
p2093
V2541783365
p2094
sbag4
(g5
g6
NtRp2095
(dp2096
S'isfamily'
p2097
I0
sS'title'
p2098
VThe Hold Steady 10/9/06 Houston, TX
p2099
sS'farm'
p2100
I1
sg13
g14
sS'ispublic'
p2101
I1
sS'server'
p2102
V103
p2103
sS'isfriend'
p2104
I0
sS'secret'
p2105
V08c72f5f1a
p2106
sg21
S'http://farm1.static.flickr.com/103/302582358_08c72f5f1a.jpg'
p2107
sS'owner'
p2108
V93321388@N00
p2109
sS'id'
p2110
V302582358
p2111
sbag4
(g5
g6
NtRp2112
(dp2113
S'isfamily'
p2114
I0
sS'title'
p2115
V031007_20201
p2116
sS'farm'
p2117
I1
sg13
g14
sS'ispublic'
p2118
I1
sS'server'
p2119
V166
p2120
sS'isfriend'
p2121
I0
sS'secret'
p2122
Vf4474db7e9
p2123
sg21
S'http://farm1.static.flickr.com/166/426321497_f4474db7e9.jpg'
p2124
sS'owner'
p2125
V81975001@N00
p2126
sS'id'
p2127
V426321497
p2128
sbag4
(g5
g6
NtRp2129
(dp2130
S'isfamily'
p2131
I0
sS'title'
p2132
VMerry Christmas from the drunk frat boy who threw his seasonally appropriate hat on the street after probably getting into a fight with the neurotic mess he was attracted to after downing 8 shots of Jager in the douchiest club that hasn't yet lost its liq
p2133
sS'farm'
p2134
I1
sg13
g14
sS'ispublic'
p2135
I1
sS'server'
p2136
V700
p2137
sS'isfriend'
p2138
I0
sS'secret'
p2139
Ve188885523
p2140
sg21
S'http://farm1.static.flickr.com/700/31876325015_e188885523.jpg'
p2141
sS'owner'
p2142
V131922137@N08
p2143
sS'id'
p2144
V31876325015
p2145
sbag4
(g5
g6
NtRp2146
(dp2147
S'isfamily'
p2148
I0
sS'title'
p2149
VDisaster on the Silver Veil
p2150
sS'farm'
p2151
I5
sg13
g14
sS'ispublic'
p2152
I1
sS'server'
p2153
V4074
p2154
sS'isfriend'
p2155
I0
sS'secret'
p2156
Vac3161beed
p2157
sg21
S'http://farm5.static.flickr.com/4074/4897032408_ac3161beed.jpg'
p2158
sS'owner'
p2159
V78721370@N00
p2160
sS'id'
p2161
V4897032408
p2162
sbag4
(g5
g6
NtRp2163
(dp2164
S'isfamily'
p2165
I0
sS'title'
p2166
VCan you see the drunk frat boys?
p2167
sS'farm'
p2168
I4
sg13
g14
sS'ispublic'
p2169
I1
sS'server'
p2170
V3441
p2171
sS'isfriend'
p2172
I0
sS'secret'
p2173
V7e32359382
p2174
sg21
S'http://farm4.static.flickr.com/3441/3746725646_7e32359382.jpg'
p2175
sS'owner'
p2176
V9319894@N04
p2177
sS'id'
p2178
V3746725646
p2179
sbag4
(g5
g6
NtRp2180
(dp2181
S'isfamily'
p2182
I0
sS'title'
p2183
Vdrunk frat guy on Muni
p2184
sS'farm'
p2185
I3
sg13
g14
sS'ispublic'
p2186
I1
sS'server'
p2187
V2146
p2188
sS'isfriend'
p2189
I0
sS'secret'
p2190
V0d7ab4b9d4
p2191
sg21
S'http://farm3.static.flickr.com/2146/2758416490_0d7ab4b9d4.jpg'
p2192
sS'owner'
p2193
V86665756@N00
p2194
sS'id'
p2195
V2758416490
p2196
sbag4
(g5
g6
NtRp2197
(dp2198
S'isfamily'
p2199
I0
sS'title'
p2200
Vdrunk frat guys on the Muni
p2201
sS'farm'
p2202
I4
sg13
g14
sS'ispublic'
p2203
I1
sS'server'
p2204
V3119
p2205
sS'isfriend'
p2206
I0
sS'secret'
p2207
Vfd42fb2a42
p2208
sg21
S'http://farm4.static.flickr.com/3119/2758416364_fd42fb2a42.jpg'
p2209
sS'owner'
p2210
V86665756@N00
p2211
sS'id'
p2212
V2758416364
p2213
sbag4
(g5
g6
NtRp2214
(dp2215
S'isfamily'
p2216
I0
sS'title'
p2217
VServing drink through an ice fountain
p2218
sS'farm'
p2219
I3
sg13
g14
sS'ispublic'
p2220
I1
sS'server'
p2221
V2024
p2222
sS'isfriend'
p2223
I0
sS'secret'
p2224
V07860565e5
p2225
sg21
S'http://farm3.static.flickr.com/2024/2237832182_07860565e5.jpg'
p2226
sS'owner'
p2227
V7835525@N07
p2228
sS'id'
p2229
V2237832182
p2230
sbag4
(g5
g6
NtRp2231
(dp2232
S'isfamily'
p2233
I0
sS'title'
p2234
VOooh drunk frat boys
p2235
sS'farm'
p2236
I2
sg13
g14
sS'ispublic'
p2237
I1
sS'server'
p2238
V1339
p2239
sS'isfriend'
p2240
I0
sS'secret'
p2241
Vab7764218c
p2242
sg21
S'http://farm2.static.flickr.com/1339/851667209_ab7764218c.jpg'
p2243
sS'owner'
p2244
V40921653@N00
p2245
sS'id'
p2246
V851667209
p2247
sbas.